Certificate:
    Data:
        Version: 3 (0x2)
        Serial Number: 2 (0x2)
    Signature Algorithm: sha256WithRSAEncryption
        Issuer: CN=ChangeMe
        Validity
            Not Before: Feb 10 20:34:40 2016 GMT
            Not After : Feb  7 20:34:40 2026 GMT
        Subject: CN=client
        Subject Public Key Info:
            Public Key Algorithm: rsaEncryption
                Public-Key: (2048 bit)
                Modulus:
                    00:b6:d9:b2:3f:df:9c:4c:98:3b:a7:7d:4c:9a:36:
                    91:dc:4c:06:fe:f9:66:58:ae:87:59:71:16:b9:d5:
                    ed:9d:59:32:af:01:51:51:fb:36:bf:29:84:bb:64:
                    84:ca:ec:92:5c:24:18:85:b3:f6:0d:a5:df:c4:dc:
                    c8:4c:73:62:38:e1:8c:b5:31:26:66:60:51:d0:46:
                    f4:7e:80:94:d9:41:9d:2d:1b:7b:01:fc:84:85:83:
                    4d:a0:4d:7c:3c:28:dd:59:06:ae:09:e5:90:59:e7:
                    7b:a5:84:88:3f:55:6d:68:cf:5f:a2:8e:ac:5f:c6:
                    78:7f:7a:df:30:65:db:51:76:6d:a9:17:df:bb:99:
                    c6:b9:5b:92:8e:de:21:1a:e4:8d:fc:1c:d0:10:b1:
                    e5:c2:2b:6e:a1:94:e9:c5:6e:05:92:ba:ab:96:2c:
                    6f:91:ae:a6:7c:59:5c:5a:0e:e8:f6:7a:a7:94:63:
                    76:18:6f:44:1b:10:c8:a3:40:52:18:01:f1:91:ef:
                    f7:08:5a:a5:c0:38:04:0b:8f:b7:ec:9e:f1:8a:bf:
                    96:01:2f:e7:9c:50:86:29:6c:8e:9e:d4:0c:ba:1d:
                    7b:fd:e1:72:b7:b6:97:2e:0e:39:15:f3:52:22:6a:
                    2f:d4:a2:de:e1:8f:cc:19:e9:73:4f:19:5f:a5:2d:
                    e5:97
                Exponent: 65537 (0x10001)
        X509v3 extensions:
            X509v3 Basic Constraints: 
                CA:FALSE
            X509v3 Subject Key Identifier: 
                D2:3F:6D:B2:7E:88:87:DF:EB:05:7C:D2:DD:69:2B:C3:52:EE:EC:E7
            X509v3 Authority Key Identifier: 
                keyid:30:30:47:5F:7C:6D:F2:BB:B6:C0:FC:32:24:20:33:94:37:35:70:A7
                DirName:/CN=ChangeMe
                serial:F2:90:F4:B3:35:FB:84:92

            X509v3 Extended Key Usage: 
                TLS Web Client Authentication
            X509v3 Key Usage: 
                Digital Signature
    Signature Algorithm: sha256WithRSAEncryption
         97:73:c6:02:25:5d:37:ee:67:9f:f4:5d:97:4a:e3:f4:2b:68:
         3a:eb:ef:bb:ac:ac:95:5c:8c:49:36:73:20:2c:99:0c:a5:62:
         b8:67:d3:76:3f:45:5d:56:7a:48:b5:37:8a:f1:2f:4b:ea:fd:
         03:66:3d:1d:ce:04:53:3f:d0:f1:e0:02:c3:68:32:24:66:d0:
         b5:5c:ce:51:f7:19:f0:7d:41:eb:ec:53:7f:6d:7a:b9:18:5a:
         ab:ff:e9:81:4d:55:d3:aa:8b:7a:da:53:4a:59:44:fa:29:60:
         e0:8d:7d:b0:06:7a:e8:0f:86:00:d9:2d:b6:8e:f9:d7:ef:08:
         e1:53:e6:c2:0c:6b:20:1f:ac:91:27:60:5e:11:ec:93:3a:90:
         b1:21:ef:83:59:f6:7f:78:4f:ea:b0:88:f1:d0:3b:c4:a0:9e:
         14:14:7d:d5:ed:d1:1e:84:f0:66:8d:7b:b1:49:d1:89:0a:54:
         1a:d6:23:a7:e3:f2:a0:79:f6:01:22:bf:b7:d8:8e:2d:d8:fa:
         25:21:53:31:45:a2:79:b9:58:5b:50:07:41:99:5f:c4:48:a4:
         a1:10:fb:db:bf:7a:ef:79:a6:7a:91:7e:2c:1b:06:90:d1:02:
         3a:2d:1d:60:b5:cc:89:b9:cc:d5:c5:6d:42:31:2c:10:36:68:
         37:47:13:d6
-----BEGIN CERTIFICATE-----
MIIDNDCCAhygAwIBAgIBAjANBgkqhkiG9w0BAQsFADATMREwDwYDVQQDDAhDaGFu
Z2VNZTAeFw0xNjAyMTAyMDM0NDBaFw0yNjAyMDcyMDM0NDBaMBExDzANBgNVBAMM
BmNsaWVudDCCASIwDQYJKoZIhvcNAQEBBQADggEPADCCAQoCggEBALbZsj/fnEyY
O6d9TJo2kdxMBv75Zliuh1lxFrnV7Z1ZMq8BUVH7Nr8phLtkhMrsklwkGIWz9g2l
38TcyExzYjjhjLUxJmZgUdBG9H6AlNlBnS0bewH8hIWDTaBNfDwo3VkGrgnlkFnn
e6WEiD9VbWjPX6KOrF/GeH963zBl21F2bakX37uZxrlbko7eIRrkjfwc0BCx5cIr
bqGU6cVuBZK6q5Ysb5GupnxZXFoO6PZ6p5RjdhhvRBsQyKNAUhgB8ZHv9whapcA4
BAuPt+ye8Yq/lgEv55xQhilsjp7UDLode/3hcre2ly4OORXzUiJqL9Si3uGPzBnp
c08ZX6Ut5ZcCAwEAAaOBlDCBkTAJBgNVHRMEAjAAMB0GA1UdDgQWBBTSP22yfoiH
3+sFfNLdaSvDUu7s5zBDBgNVHSMEPDA6gBQwMEdffG3yu7bA/DIkIDOUNzVwp6EX
pBUwEzERMA8GA1UEAwwIQ2hhbmdlTWWCCQDykPSzNfuEkjATBgNVHSUEDDAKBggr
BgEFBQcDAjALBgNVHQ8EBAMCB4AwDQYJKoZIhvcNAQELBQADggEBAJdzxgIlXTfu
Z5/0XZdK4/QraDrr77usrJVcjEk2cyAsmQylYrhn03Y/RV1Weki1N4rxL0vq/QNm
PR3OBFM/0PHgAsNoMiRm0LVczlH3GfB9QevsU39terkYWqv/6YFNVdOqi3raU0pZ
RPopYOCNfbAGeugPhgDZLbaO+dfvCOFT5sIMayAfrJEnYF4R7JM6kLEh74NZ9n94
T+qwiPHQO8SgnhQUfdXt0R6E8GaNe7FJ0YkKVBrWI6fj8qB59gEiv7fYji3Y+iUh
UzFFonm5WFtQB0GZX8RIpKEQ+9u/eu95pnqRfiwbBpDRAjotHWC1zIm5zNXFbUIx
LBA2aDdHE9Y=
-----END CERTIFICATE-----
