Certificate:
    Data:
        Version: 3 (0x2)
        Serial Number: 3 (0x3)
    Signature Algorithm: sha256WithRSAEncryption
        Issuer: CN=ChangeMe
        Validity
            Not Before: Feb 19 16:52:49 2016 GMT
            Not After : Feb 16 16:52:49 2026 GMT
        Subject: CN=a6160dd0
        Subject Public Key Info:
            Public Key Algorithm: rsaEncryption
                Public-Key: (2048 bit)
                Modulus:
                    00:c7:84:f6:d9:be:ca:5a:37:bd:19:2c:57:73:a3:
                    eb:76:29:2a:72:21:68:1c:49:b7:b9:66:38:55:01:
                    98:4e:02:af:e1:92:4f:74:ad:66:ce:db:d5:b4:07:
                    1c:64:0a:67:5c:d1:f7:5b:61:0b:90:66:9c:a0:b8:
                    ba:fc:ba:43:28:34:43:93:81:53:06:06:9b:34:31:
                    fe:90:00:51:38:d6:7f:77:bc:e7:bd:0d:03:bd:1e:
                    64:ff:d4:99:73:e7:0f:1b:d5:59:28:a8:c7:c2:75:
                    d8:fe:39:2d:e5:ba:f0:34:9e:69:9b:59:4b:f1:3d:
                    91:ce:48:5b:a0:93:f1:f4:95:00:2b:50:59:0f:3b:
                    c6:b8:fa:ea:4a:43:7e:ca:ca:d2:73:5c:4c:cd:8b:
                    69:31:c7:6d:85:f4:aa:23:02:79:52:1c:a2:2e:d2:
                    df:0c:8a:48:e7:48:2b:86:7b:5b:f3:99:61:73:b3:
                    f5:cb:46:b7:10:f1:9f:2a:82:0b:65:19:53:9f:f5:
                    d4:ff:fc:2d:f4:af:7b:51:59:84:08:cd:cb:c9:22:
                    37:9e:a0:f5:01:a5:9a:4a:59:ae:01:c1:aa:4c:96:
                    c9:c0:b4:1c:25:9a:c2:7a:eb:73:a1:be:53:cb:b7:
                    f7:a4:be:1f:72:f0:b6:c4:c2:86:c6:67:d7:85:23:
                    90:53
                Exponent: 65537 (0x10001)
        X509v3 extensions:
            X509v3 Basic Constraints: 
                CA:FALSE
            X509v3 Subject Key Identifier: 
                2B:ED:9D:5B:49:64:AD:61:2D:B3:CC:03:7E:52:FB:47:7C:34:5F:9F
            X509v3 Authority Key Identifier: 
                keyid:30:30:47:5F:7C:6D:F2:BB:B6:C0:FC:32:24:20:33:94:37:35:70:A7
                DirName:/CN=ChangeMe
                serial:F2:90:F4:B3:35:FB:84:92

            X509v3 Extended Key Usage: 
                TLS Web Client Authentication
            X509v3 Key Usage: 
                Digital Signature
    Signature Algorithm: sha256WithRSAEncryption
         92:df:e6:f1:80:d9:e5:16:d5:00:22:e7:2a:bf:e1:4c:84:e9:
         46:1b:86:33:7f:61:be:25:c9:9d:c8:95:3b:90:15:3f:1a:3b:
         fa:63:8b:1e:d4:e5:d4:df:70:42:76:4f:1e:46:dd:d8:c9:c9:
         a7:7a:b9:50:a3:15:d4:45:dd:e4:ec:fa:43:19:5a:0f:9b:74:
         53:7e:e1:01:25:b4:79:d4:0d:a1:a6:b7:82:8f:56:3e:69:c8:
         44:dc:54:bc:3d:3f:9b:9e:f1:34:53:e0:db:ae:a7:b1:2a:90:
         74:12:2b:e5:52:51:cb:c2:24:7e:da:69:47:b0:5f:1c:82:47:
         d7:26:c7:fc:02:65:10:6b:5a:5b:f4:e9:80:a8:83:9b:1a:09:
         0b:51:80:84:f7:89:72:46:21:b6:81:de:b7:2a:46:ac:be:db:
         48:02:6e:9d:65:27:ba:dc:9e:c6:85:a4:ca:40:a6:c6:f8:5a:
         b5:df:f8:d5:4d:99:32:64:d4:73:9e:91:7e:bd:b0:33:9b:5f:
         ef:36:6b:b1:97:bc:9b:50:81:86:b8:7f:53:c6:1c:e0:5d:a9:
         fc:7d:ea:95:cd:dd:95:65:1d:f6:4b:7c:dc:c8:d1:3e:09:c9:
         cf:24:1d:b0:a2:bb:b1:52:7d:f6:29:d8:31:02:a9:c5:c3:bd:
         0e:5a:dc:fe
-----BEGIN CERTIFICATE-----
MIIDNjCCAh6gAwIBAgIBAzANBgkqhkiG9w0BAQsFADATMREwDwYDVQQDDAhDaGFu
Z2VNZTAeFw0xNjAyMTkxNjUyNDlaFw0yNjAyMTYxNjUyNDlaMBMxETAPBgNVBAMM
CGE2MTYwZGQwMIIBIjANBgkqhkiG9w0BAQEFAAOCAQ8AMIIBCgKCAQEAx4T22b7K
Wje9GSxXc6PrdikqciFoHEm3uWY4VQGYTgKv4ZJPdK1mztvVtAccZApnXNH3W2EL
kGacoLi6/LpDKDRDk4FTBgabNDH+kABRONZ/d7znvQ0DvR5k/9SZc+cPG9VZKKjH
wnXY/jkt5brwNJ5pm1lL8T2RzkhboJPx9JUAK1BZDzvGuPrqSkN+ysrSc1xMzYtp
McdthfSqIwJ5UhyiLtLfDIpI50grhntb85lhc7P1y0a3EPGfKoILZRlTn/XU//wt
9K97UVmECM3LySI3nqD1AaWaSlmuAcGqTJbJwLQcJZrCeutzob5Ty7f3pL4fcvC2
xMKGxmfXhSOQUwIDAQABo4GUMIGRMAkGA1UdEwQCMAAwHQYDVR0OBBYEFCvtnVtJ
ZK1hLbPMA35S+0d8NF+fMEMGA1UdIwQ8MDqAFDAwR198bfK7tsD8MiQgM5Q3NXCn
oRekFTATMREwDwYDVQQDDAhDaGFuZ2VNZYIJAPKQ9LM1+4SSMBMGA1UdJQQMMAoG
CCsGAQUFBwMCMAsGA1UdDwQEAwIHgDANBgkqhkiG9w0BAQsFAAOCAQEAkt/m8YDZ
5RbVACLnKr/hTITpRhuGM39hviXJnciVO5AVPxo7+mOLHtTl1N9wQnZPHkbd2MnJ
p3q5UKMV1EXd5Oz6QxlaD5t0U37hASW0edQNoaa3go9WPmnIRNxUvD0/m57xNFPg
266nsSqQdBIr5VJRy8IkftppR7BfHIJH1ybH/AJlEGtaW/TpgKiDmxoJC1GAhPeJ
ckYhtoHetypGrL7bSAJunWUnutyexoWkykCmxvhatd/41U2ZMmTUc56Rfr2wM5tf
7zZrsZe8m1CBhrh/U8Yc4F2p/H3qlc3dlWUd9kt83MjRPgnJzyQdsKK7sVJ99inY
MQKpxcO9Dlrc/g==
-----END CERTIFICATE-----
