Certificate:
    Data:
        Version: 3 (0x2)
        Serial Number: 4 (0x4)
    Signature Algorithm: sha256WithRSAEncryption
        Issuer: CN=ChangeMe
        Validity
            Not Before: Feb 19 16:59:17 2016 GMT
            Not After : Feb 16 16:59:17 2026 GMT
        Subject: CN=dasdasd
        Subject Public Key Info:
            Public Key Algorithm: rsaEncryption
                Public-Key: (2048 bit)
                Modulus:
                    00:d2:72:02:8c:1c:cb:30:03:6c:1a:2f:46:98:28:
                    2b:e2:96:63:c7:65:93:39:ae:12:7e:b2:ea:22:e0:
                    e5:eb:c8:64:27:e4:7a:7f:2b:d7:ab:36:36:5c:c2:
                    38:3c:e4:d4:d4:7d:11:4d:0e:1b:30:7f:3c:2e:60:
                    63:c9:0e:4a:e3:cf:50:b4:6a:f6:1b:49:7a:e1:b6:
                    af:f1:58:3c:fa:4c:ef:f9:f6:17:bc:26:97:53:f1:
                    6f:5c:09:26:4e:ed:46:c9:68:c4:86:fa:1e:4d:18:
                    a2:9d:54:72:06:5b:ba:f1:00:01:bd:66:1c:de:a2:
                    34:03:68:b0:63:21:02:27:23:a7:70:c9:df:71:ec:
                    21:5a:de:3f:62:76:da:2c:8a:1c:01:de:2c:d3:50:
                    5d:eb:83:8f:a0:9f:74:42:1d:64:bf:b5:9c:56:ba:
                    2f:0b:83:37:db:c7:25:c0:67:66:b4:47:72:1c:58:
                    0d:5c:87:e5:76:6b:7f:81:b1:52:91:e8:5b:2f:17:
                    03:cc:91:42:00:6b:86:d6:87:94:93:c8:12:d2:88:
                    26:f2:00:2f:e2:2c:96:cf:69:29:ab:18:c7:e7:74:
                    d4:53:66:9c:39:74:cb:26:13:39:37:72:c6:83:3c:
                    dc:e2:8c:2e:63:99:01:a6:76:d8:2c:ee:1b:b4:3e:
                    1f:47
                Exponent: 65537 (0x10001)
        X509v3 extensions:
            X509v3 Basic Constraints: 
                CA:FALSE
            X509v3 Subject Key Identifier: 
                10:5C:F7:DE:F4:DE:6E:F3:4A:46:C4:9D:2C:FF:5F:8C:5C:D4:E8:47
            X509v3 Authority Key Identifier: 
                keyid:30:30:47:5F:7C:6D:F2:BB:B6:C0:FC:32:24:20:33:94:37:35:70:A7
                DirName:/CN=ChangeMe
                serial:F2:90:F4:B3:35:FB:84:92

            X509v3 Extended Key Usage: 
                TLS Web Client Authentication
            X509v3 Key Usage: 
                Digital Signature
    Signature Algorithm: sha256WithRSAEncryption
         2a:fd:25:a3:c7:20:63:42:7b:ec:38:42:ec:2e:3b:7a:7f:fc:
         e8:ab:dc:66:98:32:18:83:58:15:2f:df:82:05:c2:82:dd:64:
         c1:fc:fc:39:6c:28:96:cd:c7:15:8e:db:e1:a8:70:9b:1a:f1:
         31:e1:fa:f4:e0:66:0b:b5:bd:64:ec:39:a7:f6:c8:fe:94:9b:
         4f:f0:c5:63:dd:34:6f:0d:dd:e8:5f:cb:5b:f7:a7:64:83:aa:
         44:cf:0e:eb:be:63:a5:42:a8:f4:44:c3:52:e9:09:2d:14:95:
         d9:e3:c3:dc:de:2a:8b:00:5e:41:62:b6:28:41:8c:38:35:d5:
         f7:88:2c:e2:5f:6a:6b:32:90:b6:f9:6a:43:5a:a4:05:7f:eb:
         e0:e2:c6:d7:e3:00:c4:09:c0:fb:4a:1a:b8:ac:6c:75:bf:40:
         79:70:5b:97:fe:9a:31:62:dc:b0:51:2b:a4:dd:ea:c6:fd:8e:
         b9:40:a6:44:d3:8f:9d:27:b2:46:f9:94:86:c4:fd:3a:37:c9:
         a6:3a:c1:ee:19:68:ba:36:e9:af:fa:22:62:12:15:3b:5f:a3:
         3a:ac:27:b9:7b:65:81:e4:3c:99:4f:f6:58:0f:fb:25:29:56:
         63:76:ce:74:5a:11:7e:cc:91:30:ed:cb:c6:9e:e6:d8:99:f3:
         30:1b:a8:24
-----BEGIN CERTIFICATE-----
MIIDNTCCAh2gAwIBAgIBBDANBgkqhkiG9w0BAQsFADATMREwDwYDVQQDDAhDaGFu
Z2VNZTAeFw0xNjAyMTkxNjU5MTdaFw0yNjAyMTYxNjU5MTdaMBIxEDAOBgNVBAMM
B2Rhc2Rhc2QwggEiMA0GCSqGSIb3DQEBAQUAA4IBDwAwggEKAoIBAQDScgKMHMsw
A2waL0aYKCvilmPHZZM5rhJ+suoi4OXryGQn5Hp/K9erNjZcwjg85NTUfRFNDhsw
fzwuYGPJDkrjz1C0avYbSXrhtq/xWDz6TO/59he8JpdT8W9cCSZO7UbJaMSG+h5N
GKKdVHIGW7rxAAG9ZhzeojQDaLBjIQInI6dwyd9x7CFa3j9idtosihwB3izTUF3r
g4+gn3RCHWS/tZxWui8LgzfbxyXAZ2a0R3IcWA1ch+V2a3+BsVKR6FsvFwPMkUIA
a4bWh5STyBLSiCbyAC/iLJbPaSmrGMfndNRTZpw5dMsmEzk3csaDPNzijC5jmQGm
dtgs7hu0Ph9HAgMBAAGjgZQwgZEwCQYDVR0TBAIwADAdBgNVHQ4EFgQUEFz33vTe
bvNKRsSdLP9fjFzU6EcwQwYDVR0jBDwwOoAUMDBHX3xt8ru2wPwyJCAzlDc1cKeh
F6QVMBMxETAPBgNVBAMMCENoYW5nZU1lggkA8pD0szX7hJIwEwYDVR0lBAwwCgYI
KwYBBQUHAwIwCwYDVR0PBAQDAgeAMA0GCSqGSIb3DQEBCwUAA4IBAQAq/SWjxyBj
QnvsOELsLjt6f/zoq9xmmDIYg1gVL9+CBcKC3WTB/Pw5bCiWzccVjtvhqHCbGvEx
4fr04GYLtb1k7Dmn9sj+lJtP8MVj3TRvDd3oX8tb96dkg6pEzw7rvmOlQqj0RMNS
6QktFJXZ48Pc3iqLAF5BYrYoQYw4NdX3iCziX2prMpC2+WpDWqQFf+vg4sbX4wDE
CcD7Shq4rGx1v0B5cFuX/poxYtywUSuk3erG/Y65QKZE04+dJ7JG+ZSGxP06N8mm
OsHuGWi6Numv+iJiEhU7X6M6rCe5e2WB5DyZT/ZYD/slKVZjds50WhF+zJEw7cvG
nubYmfMwG6gk
-----END CERTIFICATE-----
