Certificate:
    Data:
        Version: 3 (0x2)
        Serial Number: 5 (0x5)
    Signature Algorithm: sha256WithRSAEncryption
        Issuer: CN=ChangeMe
        Validity
            Not Before: Feb 19 17:00:58 2016 GMT
            Not After : Feb 16 17:00:58 2026 GMT
        Subject: CN=703154ad
        Subject Public Key Info:
            Public Key Algorithm: rsaEncryption
                Public-Key: (2048 bit)
                Modulus:
                    00:cc:6e:93:6c:85:79:fb:aa:5c:4c:32:15:6a:a4:
                    c1:d6:a3:d5:ae:6e:28:0b:50:90:be:66:58:79:d3:
                    1f:b8:0a:09:bc:77:28:69:dd:fb:f7:d8:84:a2:65:
                    5e:3a:32:8e:1d:f2:43:3c:88:8a:a1:81:86:6e:c8:
                    82:7d:51:7b:68:5e:ff:fc:f1:a7:fb:82:4c:4e:f7:
                    33:83:42:18:7b:ff:d5:2e:07:df:07:a1:5f:f4:a7:
                    23:b0:f5:2b:d6:e6:4d:de:94:55:ce:23:f4:cf:5c:
                    2a:35:a1:fe:30:c8:c5:31:1a:88:78:5c:7f:36:66:
                    19:83:0b:20:c1:dd:29:c3:2f:76:44:f9:17:56:c2:
                    60:a1:1c:a5:2e:92:e2:77:5f:64:93:ce:02:27:25:
                    80:91:79:80:f8:1c:b3:b9:2a:a5:11:d5:f2:cb:ad:
                    f0:3e:ab:94:c1:75:63:df:05:13:7f:c0:05:66:89:
                    f9:13:b7:ab:5c:3c:4a:42:b9:f2:fb:f6:37:bc:b4:
                    9d:05:07:7e:0e:36:63:f3:27:6a:d7:7b:90:eb:5d:
                    af:a7:a0:b9:e2:3f:06:02:a5:79:f3:27:39:2a:6c:
                    b2:fd:d4:ff:9a:5c:48:77:74:42:b4:99:1b:e7:03:
                    0f:9a:9d:37:58:e8:47:b9:59:df:06:f4:64:38:7d:
                    a8:ef
                Exponent: 65537 (0x10001)
        X509v3 extensions:
            X509v3 Basic Constraints: 
                CA:FALSE
            X509v3 Subject Key Identifier: 
                F8:C6:6F:28:5F:BA:29:5E:67:A5:87:10:1B:EF:41:B9:2C:A6:5D:BA
            X509v3 Authority Key Identifier: 
                keyid:30:30:47:5F:7C:6D:F2:BB:B6:C0:FC:32:24:20:33:94:37:35:70:A7
                DirName:/CN=ChangeMe
                serial:F2:90:F4:B3:35:FB:84:92

            X509v3 Extended Key Usage: 
                TLS Web Client Authentication
            X509v3 Key Usage: 
                Digital Signature
    Signature Algorithm: sha256WithRSAEncryption
         d4:a8:3a:07:81:40:5d:f0:77:3d:1b:d5:e7:02:7c:c2:98:45:
         d0:4c:f3:2f:54:10:ec:3f:f6:67:62:12:ac:26:0d:bc:4d:ce:
         a6:3f:11:39:95:b9:7e:dc:e9:8a:cc:4e:a7:06:80:f2:74:9f:
         58:bb:c8:e4:81:7c:d6:5a:52:48:70:a7:23:4f:e6:a6:78:c7:
         76:4b:b3:0f:79:48:44:d3:ac:9c:2c:80:db:ab:4b:5f:7f:2b:
         18:1f:ca:22:03:28:bb:96:51:01:7d:a0:24:ba:8b:d7:07:4c:
         4f:ab:e8:5f:dd:cc:f8:e8:79:25:bd:c7:7e:17:bc:8e:86:83:
         73:2c:b5:50:14:f8:ed:22:be:86:aa:e7:95:e6:ce:69:c3:94:
         70:39:ba:d9:2e:eb:47:85:5d:1b:e4:0c:3c:4b:81:35:38:0f:
         01:74:f9:ce:fb:b2:7e:6a:af:d0:a8:5b:c5:82:0d:9b:df:dd:
         c5:3a:a3:fa:dd:25:2c:99:9d:31:8c:38:bf:0c:a6:b9:10:bf:
         65:65:b7:be:61:6e:82:84:8c:a8:a2:a8:c8:02:30:ba:2e:9c:
         75:d9:ad:6e:73:ee:14:e1:be:e7:ef:62:9f:47:15:96:c4:22:
         16:95:36:3e:9b:fb:d2:7b:08:b5:2f:df:a2:bb:89:34:11:a5:
         ef:f9:f6:9a
-----BEGIN CERTIFICATE-----
MIIDNjCCAh6gAwIBAgIBBTANBgkqhkiG9w0BAQsFADATMREwDwYDVQQDDAhDaGFu
Z2VNZTAeFw0xNjAyMTkxNzAwNThaFw0yNjAyMTYxNzAwNThaMBMxETAPBgNVBAMM
CDcwMzE1NGFkMIIBIjANBgkqhkiG9w0BAQEFAAOCAQ8AMIIBCgKCAQEAzG6TbIV5
+6pcTDIVaqTB1qPVrm4oC1CQvmZYedMfuAoJvHcoad3799iEomVeOjKOHfJDPIiK
oYGGbsiCfVF7aF7//PGn+4JMTvczg0IYe//VLgffB6Ff9KcjsPUr1uZN3pRVziP0
z1wqNaH+MMjFMRqIeFx/NmYZgwsgwd0pwy92RPkXVsJgoRylLpLid19kk84CJyWA
kXmA+ByzuSqlEdXyy63wPquUwXVj3wUTf8AFZon5E7erXDxKQrny+/Y3vLSdBQd+
DjZj8ydq13uQ612vp6C54j8GAqV58yc5Kmyy/dT/mlxId3RCtJkb5wMPmp03WOhH
uVnfBvRkOH2o7wIDAQABo4GUMIGRMAkGA1UdEwQCMAAwHQYDVR0OBBYEFPjGbyhf
uileZ6WHEBvvQbkspl26MEMGA1UdIwQ8MDqAFDAwR198bfK7tsD8MiQgM5Q3NXCn
oRekFTATMREwDwYDVQQDDAhDaGFuZ2VNZYIJAPKQ9LM1+4SSMBMGA1UdJQQMMAoG
CCsGAQUFBwMCMAsGA1UdDwQEAwIHgDANBgkqhkiG9w0BAQsFAAOCAQEA1Kg6B4FA
XfB3PRvV5wJ8wphF0EzzL1QQ7D/2Z2ISrCYNvE3Opj8ROZW5ftzpisxOpwaA8nSf
WLvI5IF81lpSSHCnI0/mpnjHdkuzD3lIRNOsnCyA26tLX38rGB/KIgMou5ZRAX2g
JLqL1wdMT6voX93M+Oh5Jb3Hfhe8joaDcyy1UBT47SK+hqrnlebOacOUcDm62S7r
R4VdG+QMPEuBNTgPAXT5zvuyfmqv0KhbxYINm9/dxTqj+t0lLJmdMYw4vwymuRC/
ZWW3vmFugoSMqKKoyAIwui6cddmtbnPuFOG+5+9in0cVlsQiFpU2Ppv70nsItS/f
oruJNBGl7/n2mg==
-----END CERTIFICATE-----
