Certificate:
    Data:
        Version: 3 (0x2)
        Serial Number: 6 (0x6)
    Signature Algorithm: sha256WithRSAEncryption
        Issuer: CN=ChangeMe
        Validity
            Not Before: Feb 20 07:48:37 2016 GMT
            Not After : Feb 17 07:48:37 2026 GMT
        Subject: CN=c7e3a653
        Subject Public Key Info:
            Public Key Algorithm: rsaEncryption
                Public-Key: (2048 bit)
                Modulus:
                    00:e5:3f:f3:f2:9f:e4:67:78:ef:ff:f4:ff:89:92:
                    86:19:73:b6:1e:4e:dc:69:5d:4a:ce:23:95:15:e2:
                    51:1f:d8:1a:6d:b0:5e:01:9b:9d:4f:b2:39:d2:2e:
                    da:69:12:2e:b5:33:6e:a2:ca:7e:71:64:49:91:62:
                    79:a2:b2:8d:a4:bc:52:55:19:c7:8b:ec:c9:78:8b:
                    6b:2b:bc:5f:e6:33:44:26:24:53:cc:02:3e:34:1f:
                    d7:c9:01:e3:c5:fc:7f:6a:11:50:9a:34:24:db:c9:
                    6d:e0:c2:68:ea:a6:33:51:de:38:1d:29:78:aa:b3:
                    14:2e:32:1b:c6:68:14:0d:93:f9:06:98:c8:8d:95:
                    57:4d:3a:52:63:14:2a:b3:bf:46:e2:88:a4:02:00:
                    d7:ea:e4:00:92:46:5e:5d:cb:96:b4:53:e6:05:5f:
                    1c:4e:9b:57:87:c2:89:d1:29:f4:e7:49:57:67:92:
                    a0:6e:70:26:65:5b:98:54:e2:10:90:83:a7:32:db:
                    45:4a:3c:1f:ec:7b:47:13:1c:09:86:e8:73:d3:a4:
                    9e:c7:3c:f7:50:ae:ed:6b:48:f5:e6:99:37:bb:3e:
                    94:eb:a8:7f:9c:bf:7f:f3:98:77:c5:fd:cd:7a:9d:
                    b9:cb:c6:08:b7:6f:16:3e:98:6e:c6:b5:ad:c8:e5:
                    21:bf
                Exponent: 65537 (0x10001)
        X509v3 extensions:
            X509v3 Basic Constraints: 
                CA:FALSE
            X509v3 Subject Key Identifier: 
                02:8D:CE:CC:A2:5A:14:CA:0C:E0:4A:33:6A:32:F5:DD:ED:5C:5D:A0
            X509v3 Authority Key Identifier: 
                keyid:30:30:47:5F:7C:6D:F2:BB:B6:C0:FC:32:24:20:33:94:37:35:70:A7
                DirName:/CN=ChangeMe
                serial:F2:90:F4:B3:35:FB:84:92

            X509v3 Extended Key Usage: 
                TLS Web Client Authentication
            X509v3 Key Usage: 
                Digital Signature
    Signature Algorithm: sha256WithRSAEncryption
         04:77:3c:23:94:b9:84:45:04:e5:bc:95:3b:0e:37:0b:0a:0f:
         ff:d4:7e:ba:f8:b8:b2:4a:b8:cd:3b:ee:ab:7a:56:b8:da:f6:
         26:9c:d1:40:56:bd:d7:a2:ed:8e:db:82:3a:e1:b2:39:a4:2d:
         9b:43:12:50:c6:87:4d:af:1e:bd:1c:e8:d7:a7:9d:d5:aa:54:
         78:85:d3:32:e3:3e:65:21:27:b7:83:fb:cf:86:a1:5f:bb:80:
         d6:7f:40:49:94:95:47:ef:4f:a1:2c:fb:f3:92:be:29:a6:ab:
         fc:95:6b:2e:a4:77:da:2c:14:dc:4e:83:81:39:f8:ea:a3:53:
         aa:97:9d:fa:55:13:73:54:aa:77:4f:4b:dd:d6:10:ff:23:40:
         ff:10:a2:75:83:36:67:92:23:94:74:be:b9:39:bc:99:4c:06:
         d1:f7:18:49:52:d1:1a:ad:87:c9:e8:8c:af:c9:55:de:6a:09:
         e8:96:38:ed:01:26:57:a2:35:e9:af:d1:29:27:50:ef:84:00:
         9d:9c:ef:1a:70:5c:05:51:23:e2:81:4a:e5:73:5a:b4:da:cd:
         e9:76:ee:a2:4a:75:76:74:06:e4:03:ff:6a:3d:ed:e0:dc:16:
         52:4e:b8:8b:cc:f4:85:c9:bf:c5:96:d4:ca:d0:88:d2:68:af:
         80:cb:6a:cc
-----BEGIN CERTIFICATE-----
MIIDNjCCAh6gAwIBAgIBBjANBgkqhkiG9w0BAQsFADATMREwDwYDVQQDDAhDaGFu
Z2VNZTAeFw0xNjAyMjAwNzQ4MzdaFw0yNjAyMTcwNzQ4MzdaMBMxETAPBgNVBAMM
CGM3ZTNhNjUzMIIBIjANBgkqhkiG9w0BAQEFAAOCAQ8AMIIBCgKCAQEA5T/z8p/k
Z3jv//T/iZKGGXO2Hk7caV1KziOVFeJRH9gabbBeAZudT7I50i7aaRIutTNuosp+
cWRJkWJ5orKNpLxSVRnHi+zJeItrK7xf5jNEJiRTzAI+NB/XyQHjxfx/ahFQmjQk
28lt4MJo6qYzUd44HSl4qrMULjIbxmgUDZP5BpjIjZVXTTpSYxQqs79G4oikAgDX
6uQAkkZeXcuWtFPmBV8cTptXh8KJ0Sn050lXZ5KgbnAmZVuYVOIQkIOnMttFSjwf
7HtHExwJhuhz06Sexzz3UK7ta0j15pk3uz6U66h/nL9/85h3xf3Nep25y8YIt28W
PphuxrWtyOUhvwIDAQABo4GUMIGRMAkGA1UdEwQCMAAwHQYDVR0OBBYEFAKNzsyi
WhTKDOBKM2oy9d3tXF2gMEMGA1UdIwQ8MDqAFDAwR198bfK7tsD8MiQgM5Q3NXCn
oRekFTATMREwDwYDVQQDDAhDaGFuZ2VNZYIJAPKQ9LM1+4SSMBMGA1UdJQQMMAoG
CCsGAQUFBwMCMAsGA1UdDwQEAwIHgDANBgkqhkiG9w0BAQsFAAOCAQEABHc8I5S5
hEUE5byVOw43CwoP/9R+uvi4skq4zTvuq3pWuNr2JpzRQFa916LtjtuCOuGyOaQt
m0MSUMaHTa8evRzo16ed1apUeIXTMuM+ZSEnt4P7z4ahX7uA1n9ASZSVR+9PoSz7
85K+Kaar/JVrLqR32iwU3E6DgTn46qNTqped+lUTc1Sqd09L3dYQ/yNA/xCidYM2
Z5IjlHS+uTm8mUwG0fcYSVLRGq2HyeiMr8lV3moJ6JY47QEmV6I16a/RKSdQ74QA
nZzvGnBcBVEj4oFK5XNatNrN6Xbuokp1dnQG5AP/aj3t4NwWUk64i8z0hcm/xZbU
ytCI0mivgMtqzA==
-----END CERTIFICATE-----
