Certificate:
    Data:
        Version: 3 (0x2)
        Serial Number: 7 (0x7)
    Signature Algorithm: sha256WithRSAEncryption
        Issuer: CN=ChangeMe
        Validity
            Not Before: Feb 20 07:59:33 2016 GMT
            Not After : Feb 17 07:59:33 2026 GMT
        Subject: CN=31ce8ed5
        Subject Public Key Info:
            Public Key Algorithm: rsaEncryption
                Public-Key: (2048 bit)
                Modulus:
                    00:c9:8e:20:24:78:3f:fb:82:e3:bc:ea:86:e4:17:
                    3d:39:de:37:b8:ec:b7:5a:b6:86:ff:2c:da:11:6b:
                    2d:d0:90:5c:9e:05:9e:ba:12:f0:11:50:28:e9:a5:
                    e9:34:79:1f:62:83:e7:d9:29:ef:ea:c6:85:84:ba:
                    49:b3:e2:e7:c4:5a:73:b8:7a:7f:7f:8f:38:4e:db:
                    ef:1d:5c:ef:e6:3a:53:2a:5f:52:3b:de:b5:35:08:
                    d8:6f:e6:99:3e:2f:68:99:5f:cd:2e:95:eb:e1:8f:
                    5c:53:aa:bf:fd:99:06:90:ee:f0:b5:f7:f4:6e:56:
                    17:2c:37:1b:ba:67:1a:e6:43:0c:f1:35:06:16:c9:
                    10:2d:23:bc:c0:6f:73:40:1a:97:dc:1b:d7:55:2d:
                    7f:fb:06:4d:85:92:2d:c5:36:49:d3:e2:e0:7a:a8:
                    2d:57:e2:14:82:a2:7a:04:97:74:c0:cd:0a:90:22:
                    7b:01:d5:1f:4a:94:fe:50:eb:68:0d:ee:90:c6:71:
                    25:c8:d5:f6:df:8e:96:77:03:1c:d3:7a:a8:4b:bd:
                    91:09:d6:3c:1d:68:11:3e:ef:c6:67:5d:b5:bb:99:
                    dc:07:eb:ac:d1:c2:ae:ef:51:45:8e:a9:cd:f4:63:
                    36:6c:ca:c2:d4:28:63:ac:9f:d3:db:39:5e:5b:f9:
                    b4:ff
                Exponent: 65537 (0x10001)
        X509v3 extensions:
            X509v3 Basic Constraints: 
                CA:FALSE
            X509v3 Subject Key Identifier: 
                0A:BB:B0:D8:49:B5:23:5C:C2:BA:A2:EB:E2:A4:82:4B:EF:74:34:5A
            X509v3 Authority Key Identifier: 
                keyid:30:30:47:5F:7C:6D:F2:BB:B6:C0:FC:32:24:20:33:94:37:35:70:A7
                DirName:/CN=ChangeMe
                serial:F2:90:F4:B3:35:FB:84:92

            X509v3 Extended Key Usage: 
                TLS Web Client Authentication
            X509v3 Key Usage: 
                Digital Signature
    Signature Algorithm: sha256WithRSAEncryption
         b6:82:99:3d:ae:8e:57:ec:b7:30:d9:39:1e:90:82:56:3b:2f:
         be:c8:d5:32:ea:5e:0e:6f:0f:d0:95:d5:9e:d1:76:b6:45:80:
         b7:02:86:49:da:d6:55:ca:33:b3:e4:d1:3e:df:f4:b6:14:46:
         88:d5:3d:e5:37:a4:6d:dc:45:5c:fa:89:db:48:ce:a9:94:1b:
         71:63:e3:59:64:b5:b1:e1:14:8b:7e:e3:f2:3c:35:31:ae:fe:
         24:ed:fb:0e:18:17:43:ff:ff:b4:e5:b5:93:72:03:1e:3d:3d:
         7a:cb:41:d0:e0:8e:0d:48:5f:38:c9:b7:00:f3:e6:7d:74:26:
         ba:bc:e1:c1:49:95:46:ea:ee:b8:e2:94:1d:77:53:b4:e5:e9:
         d1:69:8d:be:51:d5:49:c9:7d:53:a9:60:71:d7:32:0d:6f:e0:
         2f:c5:8a:4f:80:67:7c:02:6d:0a:6e:59:73:5c:2b:36:87:32:
         f5:71:a9:a6:db:99:b7:1e:cb:52:f6:02:cc:af:00:04:7e:0b:
         29:b2:a0:14:4b:f3:01:85:c8:3a:e4:08:11:2c:76:70:85:be:
         a8:c2:23:04:86:f4:45:d1:a6:a3:38:96:b7:3c:c7:8a:7e:fe:
         48:72:59:4f:02:43:ea:3c:08:24:5b:44:a5:3d:80:00:54:5e:
         f2:d7:71:10
-----BEGIN CERTIFICATE-----
MIIDNjCCAh6gAwIBAgIBBzANBgkqhkiG9w0BAQsFADATMREwDwYDVQQDDAhDaGFu
Z2VNZTAeFw0xNjAyMjAwNzU5MzNaFw0yNjAyMTcwNzU5MzNaMBMxETAPBgNVBAMM
CDMxY2U4ZWQ1MIIBIjANBgkqhkiG9w0BAQEFAAOCAQ8AMIIBCgKCAQEAyY4gJHg/
+4LjvOqG5Bc9Od43uOy3WraG/yzaEWst0JBcngWeuhLwEVAo6aXpNHkfYoPn2Snv
6saFhLpJs+LnxFpzuHp/f484TtvvHVzv5jpTKl9SO961NQjYb+aZPi9omV/NLpXr
4Y9cU6q//ZkGkO7wtff0blYXLDcbumca5kMM8TUGFskQLSO8wG9zQBqX3BvXVS1/
+wZNhZItxTZJ0+LgeqgtV+IUgqJ6BJd0wM0KkCJ7AdUfSpT+UOtoDe6QxnElyNX2
346WdwMc03qoS72RCdY8HWgRPu/GZ121u5ncB+us0cKu71FFjqnN9GM2bMrC1Chj
rJ/T2zleW/m0/wIDAQABo4GUMIGRMAkGA1UdEwQCMAAwHQYDVR0OBBYEFAq7sNhJ
tSNcwrqi6+KkgkvvdDRaMEMGA1UdIwQ8MDqAFDAwR198bfK7tsD8MiQgM5Q3NXCn
oRekFTATMREwDwYDVQQDDAhDaGFuZ2VNZYIJAPKQ9LM1+4SSMBMGA1UdJQQMMAoG
CCsGAQUFBwMCMAsGA1UdDwQEAwIHgDANBgkqhkiG9w0BAQsFAAOCAQEAtoKZPa6O
V+y3MNk5HpCCVjsvvsjVMupeDm8P0JXVntF2tkWAtwKGSdrWVcozs+TRPt/0thRG
iNU95TekbdxFXPqJ20jOqZQbcWPjWWS1seEUi37j8jw1Ma7+JO37DhgXQ///tOW1
k3IDHj09estB0OCODUhfOMm3APPmfXQmurzhwUmVRuruuOKUHXdTtOXp0WmNvlHV
Scl9U6lgcdcyDW/gL8WKT4BnfAJtCm5Zc1wrNocy9XGpptuZtx7LUvYCzK8ABH4L
KbKgFEvzAYXIOuQIESx2cIW+qMIjBIb0RdGmoziWtzzHin7+SHJZTwJD6jwIJFtE
pT2AAFRe8tdxEA==
-----END CERTIFICATE-----
