Certificate:
    Data:
        Version: 3 (0x2)
        Serial Number: 8 (0x8)
    Signature Algorithm: sha256WithRSAEncryption
        Issuer: CN=ChangeMe
        Validity
            Not Before: Feb 20 09:30:16 2016 GMT
            Not After : Feb 17 09:30:16 2026 GMT
        Subject: CN=a79b36b2
        Subject Public Key Info:
            Public Key Algorithm: rsaEncryption
                Public-Key: (2048 bit)
                Modulus:
                    00:d6:2c:07:97:58:18:f3:46:90:c1:a1:87:cc:08:
                    26:37:56:f3:81:6d:e1:ef:71:66:06:b6:64:10:ea:
                    47:1c:2e:6d:21:85:3c:96:22:67:d9:ee:8b:ae:3a:
                    8a:d5:06:0c:98:94:f9:47:f3:c8:f7:c1:82:a2:41:
                    f0:e0:6e:dd:fb:40:8f:2a:76:6d:d2:10:7e:20:38:
                    cf:94:21:63:28:e9:27:5b:b9:7f:d4:c9:d4:85:6c:
                    d0:58:8b:df:5a:50:f3:43:9e:a2:8c:9b:d5:94:26:
                    85:2f:bf:8f:b5:b7:29:a9:fe:01:ae:1d:5a:5d:b0:
                    8b:15:1e:22:71:a6:7c:ec:a0:e9:8b:44:e9:75:d9:
                    1f:d9:e7:cb:e7:26:1a:81:e4:c4:d6:7c:66:ca:9a:
                    46:77:81:0f:62:74:df:6b:5d:d3:d2:44:fe:86:86:
                    9a:38:b2:7c:ef:37:22:be:07:3c:af:12:ab:a7:63:
                    5c:2b:55:1d:2a:61:c0:45:88:db:f9:89:ce:1e:48:
                    42:e3:91:e4:4c:17:20:99:3c:04:b2:bf:78:fd:a7:
                    42:c4:e9:18:90:78:2d:c2:fc:4b:c3:67:d2:f8:7e:
                    6a:65:e3:a5:01:30:49:ac:8a:8b:f0:aa:46:62:83:
                    89:6b:b1:bf:a6:e9:93:f2:af:80:6a:eb:57:4f:c7:
                    39:45
                Exponent: 65537 (0x10001)
        X509v3 extensions:
            X509v3 Basic Constraints: 
                CA:FALSE
            X509v3 Subject Key Identifier: 
                09:29:11:23:D0:29:5A:D1:2C:2D:8E:01:C3:6D:E0:A8:DA:FC:A5:9F
            X509v3 Authority Key Identifier: 
                keyid:30:30:47:5F:7C:6D:F2:BB:B6:C0:FC:32:24:20:33:94:37:35:70:A7
                DirName:/CN=ChangeMe
                serial:F2:90:F4:B3:35:FB:84:92

            X509v3 Extended Key Usage: 
                TLS Web Client Authentication
            X509v3 Key Usage: 
                Digital Signature
    Signature Algorithm: sha256WithRSAEncryption
         62:62:e7:3d:ed:61:cc:8a:0c:b2:0c:58:a8:08:24:6f:f4:c9:
         ad:aa:35:25:0d:12:d9:aa:c8:53:85:a6:1c:a6:5c:b5:db:a2:
         7d:6a:90:7f:9c:7f:01:81:e1:dd:ab:43:57:5e:c4:21:3c:9b:
         49:31:d0:7d:4d:c7:ad:de:1a:05:5b:80:77:6e:f0:0e:8f:f6:
         07:bd:22:93:9a:e4:fb:0d:b2:d7:dd:60:a2:46:ee:ee:1d:31:
         55:9e:7b:8d:3a:65:a9:07:3a:f0:d0:37:06:9c:6e:02:65:4b:
         c7:70:12:0c:52:bc:da:f5:e1:64:ce:81:48:bb:ac:50:a2:0b:
         54:a9:89:03:86:3e:ca:ad:c6:bb:f9:8f:84:77:36:d0:d6:a0:
         95:68:74:ae:0c:28:ee:af:32:5e:3d:a5:46:8f:7f:5c:9d:6a:
         a2:91:81:63:d9:a9:ad:4d:10:3a:39:54:72:48:5f:e3:25:f6:
         ed:53:32:86:37:fe:35:d6:62:35:08:67:78:09:da:ae:9f:78:
         fb:d4:5a:ab:0c:9a:04:fc:29:f9:d1:f0:aa:a7:cd:58:b3:2d:
         db:2b:17:c0:52:94:57:a1:91:d4:33:6d:e0:8f:b1:cf:3a:09:
         29:c4:3f:c8:0f:fd:40:03:8f:59:e1:13:e1:03:f0:07:d8:30:
         cf:5a:39:24
-----BEGIN CERTIFICATE-----
MIIDNjCCAh6gAwIBAgIBCDANBgkqhkiG9w0BAQsFADATMREwDwYDVQQDDAhDaGFu
Z2VNZTAeFw0xNjAyMjAwOTMwMTZaFw0yNjAyMTcwOTMwMTZaMBMxETAPBgNVBAMM
CGE3OWIzNmIyMIIBIjANBgkqhkiG9w0BAQEFAAOCAQ8AMIIBCgKCAQEA1iwHl1gY
80aQwaGHzAgmN1bzgW3h73FmBrZkEOpHHC5tIYU8liJn2e6LrjqK1QYMmJT5R/PI
98GCokHw4G7d+0CPKnZt0hB+IDjPlCFjKOknW7l/1MnUhWzQWIvfWlDzQ56ijJvV
lCaFL7+Ptbcpqf4Brh1aXbCLFR4icaZ87KDpi0Tpddkf2efL5yYageTE1nxmyppG
d4EPYnTfa13T0kT+hoaaOLJ87zcivgc8rxKrp2NcK1UdKmHARYjb+YnOHkhC45Hk
TBcgmTwEsr94/adCxOkYkHgtwvxLw2fS+H5qZeOlATBJrIqL8KpGYoOJa7G/pumT
8q+AautXT8c5RQIDAQABo4GUMIGRMAkGA1UdEwQCMAAwHQYDVR0OBBYEFAkpESPQ
KVrRLC2OAcNt4Kja/KWfMEMGA1UdIwQ8MDqAFDAwR198bfK7tsD8MiQgM5Q3NXCn
oRekFTATMREwDwYDVQQDDAhDaGFuZ2VNZYIJAPKQ9LM1+4SSMBMGA1UdJQQMMAoG
CCsGAQUFBwMCMAsGA1UdDwQEAwIHgDANBgkqhkiG9w0BAQsFAAOCAQEAYmLnPe1h
zIoMsgxYqAgkb/TJrao1JQ0S2arIU4WmHKZctduifWqQf5x/AYHh3atDV17EITyb
STHQfU3Hrd4aBVuAd27wDo/2B70ik5rk+w2y191gokbu7h0xVZ57jTplqQc68NA3
BpxuAmVLx3ASDFK82vXhZM6BSLusUKILVKmJA4Y+yq3Gu/mPhHc20NaglWh0rgwo
7q8yXj2lRo9/XJ1qopGBY9mprU0QOjlUckhf4yX27VMyhjf+NdZiNQhneAnarp94
+9RaqwyaBPwp+dHwqqfNWLMt2ysXwFKUV6GR1DNt4I+xzzoJKcQ/yA/9QAOPWeET
4QPwB9gwz1o5JA==
-----END CERTIFICATE-----
