Certificate:
    Data:
        Version: 3 (0x2)
        Serial Number: 9 (0x9)
    Signature Algorithm: sha256WithRSAEncryption
        Issuer: CN=ChangeMe
        Validity
            Not Before: Feb 20 09:34:30 2016 GMT
            Not After : Feb 17 09:34:30 2026 GMT
        Subject: CN=487855bb
        Subject Public Key Info:
            Public Key Algorithm: rsaEncryption
                Public-Key: (2048 bit)
                Modulus:
                    00:a9:64:e3:78:49:e2:8d:11:30:76:a7:93:ea:f4:
                    17:22:e2:cf:63:63:07:49:12:07:e4:51:4b:e2:85:
                    91:46:3d:5b:db:8e:0c:d4:b1:8e:5e:98:26:ec:00:
                    1b:ed:7a:58:8b:de:ec:68:19:63:04:dc:21:13:cc:
                    1f:a1:e3:20:3a:d6:a6:ff:14:a3:62:94:98:aa:92:
                    65:5d:b5:43:bb:c1:fa:75:92:6b:76:3b:9b:dd:69:
                    1e:87:a4:8f:49:ec:f0:77:68:66:5b:e4:16:cc:5f:
                    d9:47:87:bc:a6:00:ab:e5:7d:45:72:4d:74:13:c0:
                    a2:37:1b:b8:f4:55:4b:d5:41:bf:bd:fc:39:1c:72:
                    92:9d:92:c2:cd:15:b4:7e:2a:2b:de:b7:7a:34:f0:
                    64:08:38:2e:26:37:e6:5a:52:c5:1e:ab:d7:72:ab:
                    b8:23:73:2b:c6:4c:bc:a9:f8:ed:db:0b:06:fe:29:
                    3e:4c:91:08:8b:b9:83:8e:f9:84:ce:e3:02:60:a8:
                    83:60:d1:77:17:31:08:e2:6d:9c:97:85:b2:87:94:
                    81:34:ec:31:64:fe:a0:1b:4c:5f:ef:af:fb:8f:27:
                    11:d0:b3:2d:d5:cf:f0:f0:ff:25:e9:65:8b:30:ea:
                    c4:b1:57:9b:96:53:90:49:8a:66:82:2f:86:00:9c:
                    f1:87
                Exponent: 65537 (0x10001)
        X509v3 extensions:
            X509v3 Basic Constraints: 
                CA:FALSE
            X509v3 Subject Key Identifier: 
                42:11:0E:3F:C8:3F:10:DB:6B:F1:0C:7D:FA:2B:CE:7B:10:9E:40:23
            X509v3 Authority Key Identifier: 
                keyid:30:30:47:5F:7C:6D:F2:BB:B6:C0:FC:32:24:20:33:94:37:35:70:A7
                DirName:/CN=ChangeMe
                serial:F2:90:F4:B3:35:FB:84:92

            X509v3 Extended Key Usage: 
                TLS Web Client Authentication
            X509v3 Key Usage: 
                Digital Signature
    Signature Algorithm: sha256WithRSAEncryption
         93:37:c5:44:7c:18:b7:69:b5:95:c0:1d:7e:48:84:6a:77:b8:
         20:c1:d7:0e:a5:ef:6e:5c:18:3b:9a:ce:a1:cb:9f:4f:54:97:
         cf:87:0c:0c:c5:9f:41:ec:f6:49:92:48:aa:17:8c:62:c9:b2:
         07:58:0a:51:81:08:16:e4:97:6a:dd:b6:ab:dc:e4:a7:e7:58:
         23:b1:a3:cb:9d:8b:fd:8f:d4:cf:11:a1:6d:fe:e8:b6:5b:5d:
         48:2d:e6:4f:15:be:1e:83:02:f4:20:e3:aa:7f:96:1b:e0:05:
         f0:00:ae:ae:f8:6c:18:f8:ff:11:d1:9d:6f:2c:d3:37:a8:4f:
         fd:7e:ea:c5:bb:26:44:45:2e:01:4b:06:37:49:0e:e6:e3:a2:
         21:21:7d:dd:8d:2e:17:61:84:b5:a9:23:16:fd:e6:bf:48:6b:
         5a:5e:9b:e3:b0:35:c4:bf:40:0a:93:a6:80:32:9a:ec:95:4c:
         0d:fe:64:41:fd:ce:a0:33:8a:e7:05:10:e0:85:56:85:2c:4e:
         3e:2b:7e:dd:a7:a3:88:d0:c6:6d:35:18:92:08:dc:5a:a8:19:
         a5:63:84:f8:52:fb:c3:4f:2c:26:ee:4b:7a:06:3d:87:c4:10:
         ba:1a:39:23:1b:6d:0b:97:06:98:c8:8c:e6:5b:8a:dc:81:fc:
         0b:0c:18:20
-----BEGIN CERTIFICATE-----
MIIDNjCCAh6gAwIBAgIBCTANBgkqhkiG9w0BAQsFADATMREwDwYDVQQDDAhDaGFu
Z2VNZTAeFw0xNjAyMjAwOTM0MzBaFw0yNjAyMTcwOTM0MzBaMBMxETAPBgNVBAMM
CDQ4Nzg1NWJiMIIBIjANBgkqhkiG9w0BAQEFAAOCAQ8AMIIBCgKCAQEAqWTjeEni
jREwdqeT6vQXIuLPY2MHSRIH5FFL4oWRRj1b244M1LGOXpgm7AAb7XpYi97saBlj
BNwhE8wfoeMgOtam/xSjYpSYqpJlXbVDu8H6dZJrdjub3Wkeh6SPSezwd2hmW+QW
zF/ZR4e8pgCr5X1Fck10E8CiNxu49FVL1UG/vfw5HHKSnZLCzRW0fior3rd6NPBk
CDguJjfmWlLFHqvXcqu4I3Mrxky8qfjt2wsG/ik+TJEIi7mDjvmEzuMCYKiDYNF3
FzEI4m2cl4Wyh5SBNOwxZP6gG0xf76/7jycR0LMt1c/w8P8l6WWLMOrEsVebllOQ
SYpmgi+GAJzxhwIDAQABo4GUMIGRMAkGA1UdEwQCMAAwHQYDVR0OBBYEFEIRDj/I
PxDba/EMfforznsQnkAjMEMGA1UdIwQ8MDqAFDAwR198bfK7tsD8MiQgM5Q3NXCn
oRekFTATMREwDwYDVQQDDAhDaGFuZ2VNZYIJAPKQ9LM1+4SSMBMGA1UdJQQMMAoG
CCsGAQUFBwMCMAsGA1UdDwQEAwIHgDANBgkqhkiG9w0BAQsFAAOCAQEAkzfFRHwY
t2m1lcAdfkiEane4IMHXDqXvblwYO5rOocufT1SXz4cMDMWfQez2SZJIqheMYsmy
B1gKUYEIFuSXat22q9zkp+dYI7Gjy52L/Y/UzxGhbf7otltdSC3mTxW+HoMC9CDj
qn+WG+AF8ACurvhsGPj/EdGdbyzTN6hP/X7qxbsmREUuAUsGN0kO5uOiISF93Y0u
F2GEtakjFv3mv0hrWl6b47A1xL9ACpOmgDKa7JVMDf5kQf3OoDOK5wUQ4IVWhSxO
Pit+3aejiNDGbTUYkgjcWqgZpWOE+FL7w08sJu5LegY9h8QQuho5IxttC5cGmMiM
5luK3IH8CwwYIA==
-----END CERTIFICATE-----
