Certificate:
    Data:
        Version: 3 (0x2)
        Serial Number: 10 (0xa)
    Signature Algorithm: sha256WithRSAEncryption
        Issuer: CN=ChangeMe
        Validity
            Not Before: Mar  6 07:20:39 2016 GMT
            Not After : Mar  4 07:20:39 2026 GMT
        Subject: CN=576e4d54
        Subject Public Key Info:
            Public Key Algorithm: rsaEncryption
                Public-Key: (2048 bit)
                Modulus:
                    00:a9:80:e4:28:02:be:4c:5d:cf:6f:cb:db:24:b2:
                    8a:d1:f6:32:e7:8b:67:05:b8:25:4b:6d:d5:51:57:
                    5c:0d:f8:2a:63:6b:c1:2f:9f:49:28:51:4b:4f:9e:
                    d2:e8:6d:fc:c3:96:40:43:84:47:45:d3:96:2f:e9:
                    ed:77:a1:fa:76:1b:52:70:c4:39:33:0f:cc:22:b2:
                    16:1f:43:74:0d:ff:08:29:58:91:b2:e6:29:73:84:
                    a9:ae:4c:de:52:fe:98:e8:11:a7:c9:f7:58:32:9c:
                    95:32:70:f5:15:78:d5:79:3c:a6:88:40:84:66:a7:
                    e0:b8:7b:45:7b:52:42:03:7c:66:19:a0:26:c7:0c:
                    6e:c5:da:ae:29:97:18:26:ca:73:fb:d0:73:53:69:
                    dc:94:4b:31:71:4c:4e:2c:bb:a0:d2:94:a3:f8:3e:
                    ed:49:96:04:a5:ad:53:d9:06:29:91:db:1f:5f:9d:
                    2a:7e:84:0e:35:f6:fa:b4:1d:90:a9:a9:47:f6:94:
                    04:8e:7e:ff:7a:25:f8:a4:60:68:00:54:75:a3:79:
                    d4:2c:a4:15:ed:bc:6c:5f:2c:69:72:a9:4e:4f:a3:
                    c5:bc:46:4d:35:71:51:b0:08:83:a6:54:bc:50:ae:
                    1f:c5:04:a3:ff:f4:ed:8a:ad:fa:3c:51:9b:3f:43:
                    c2:33
                Exponent: 65537 (0x10001)
        X509v3 extensions:
            X509v3 Basic Constraints: 
                CA:FALSE
            X509v3 Subject Key Identifier: 
                05:00:0D:A4:66:B2:C5:A8:1D:DA:CE:1B:EE:1E:2B:79:9D:54:DC:CB
            X509v3 Authority Key Identifier: 
                keyid:30:30:47:5F:7C:6D:F2:BB:B6:C0:FC:32:24:20:33:94:37:35:70:A7
                DirName:/CN=ChangeMe
                serial:F2:90:F4:B3:35:FB:84:92

            X509v3 Extended Key Usage: 
                TLS Web Client Authentication
            X509v3 Key Usage: 
                Digital Signature
    Signature Algorithm: sha256WithRSAEncryption
         bc:b1:12:1c:85:0f:aa:e4:6c:f3:5b:a6:a6:55:ce:74:5e:99:
         96:67:7b:b1:86:93:8b:f9:06:91:2f:5d:21:80:91:bf:1d:ff:
         a9:54:63:da:94:1d:97:04:3a:07:3e:9d:de:7f:9f:2d:69:e1:
         5b:4b:19:65:93:5a:97:fe:f9:73:6e:2e:b2:8a:8f:f2:08:84:
         aa:85:6d:c7:99:45:4b:d6:79:a9:b2:c5:ea:ef:a0:f1:ca:43:
         67:7c:f3:26:0e:f3:e1:f8:b5:62:c9:4b:4e:60:6f:b6:6a:f7:
         b5:83:7a:20:38:e6:16:3f:7b:10:4f:5e:67:92:04:67:0b:20:
         02:b1:bb:a9:7c:c4:ec:8f:1b:cb:ba:7e:49:d5:a1:8c:e8:51:
         55:60:0b:01:72:7f:97:7f:d2:9c:e5:5f:b2:8b:f8:80:26:88:
         bf:27:c7:a4:0a:d6:88:41:55:8f:c3:12:1b:91:3d:f3:a2:b3:
         5b:07:c3:fd:23:d3:68:e1:7a:c5:79:ed:f5:f8:25:51:fb:db:
         ce:e2:07:ae:1b:ad:d5:8e:76:10:1a:3e:92:05:71:5a:05:7c:
         e9:91:2e:53:db:6f:74:3d:b9:bf:17:f2:56:ce:bf:0e:ec:88:
         86:9a:17:75:35:85:98:47:b9:c3:a7:a8:15:e5:5c:c5:22:2a:
         58:a3:f7:b1
-----BEGIN CERTIFICATE-----
MIIDNjCCAh6gAwIBAgIBCjANBgkqhkiG9w0BAQsFADATMREwDwYDVQQDDAhDaGFu
Z2VNZTAeFw0xNjAzMDYwNzIwMzlaFw0yNjAzMDQwNzIwMzlaMBMxETAPBgNVBAMM
CDU3NmU0ZDU0MIIBIjANBgkqhkiG9w0BAQEFAAOCAQ8AMIIBCgKCAQEAqYDkKAK+
TF3Pb8vbJLKK0fYy54tnBbglS23VUVdcDfgqY2vBL59JKFFLT57S6G38w5ZAQ4RH
RdOWL+ntd6H6dhtScMQ5Mw/MIrIWH0N0Df8IKViRsuYpc4SprkzeUv6Y6BGnyfdY
MpyVMnD1FXjVeTymiECEZqfguHtFe1JCA3xmGaAmxwxuxdquKZcYJspz+9BzU2nc
lEsxcUxOLLug0pSj+D7tSZYEpa1T2QYpkdsfX50qfoQONfb6tB2QqalH9pQEjn7/
eiX4pGBoAFR1o3nULKQV7bxsXyxpcqlOT6PFvEZNNXFRsAiDplS8UK4fxQSj//Tt
iq36PFGbP0PCMwIDAQABo4GUMIGRMAkGA1UdEwQCMAAwHQYDVR0OBBYEFAUADaRm
ssWoHdrOG+4eK3mdVNzLMEMGA1UdIwQ8MDqAFDAwR198bfK7tsD8MiQgM5Q3NXCn
oRekFTATMREwDwYDVQQDDAhDaGFuZ2VNZYIJAPKQ9LM1+4SSMBMGA1UdJQQMMAoG
CCsGAQUFBwMCMAsGA1UdDwQEAwIHgDANBgkqhkiG9w0BAQsFAAOCAQEAvLESHIUP
quRs81umplXOdF6Zlmd7sYaTi/kGkS9dIYCRvx3/qVRj2pQdlwQ6Bz6d3n+fLWnh
W0sZZZNal/75c24usoqP8giEqoVtx5lFS9Z5qbLF6u+g8cpDZ3zzJg7z4fi1YslL
TmBvtmr3tYN6IDjmFj97EE9eZ5IEZwsgArG7qXzE7I8by7p+SdWhjOhRVWALAXJ/
l3/SnOVfsov4gCaIvyfHpArWiEFVj8MSG5E986KzWwfD/SPTaOF6xXnt9fglUfvb
zuIHrhut1Y52EBo+kgVxWgV86ZEuU9tvdD25vxfyVs6/DuyIhpoXdTWFmEe5w6eo
FeVcxSIqWKP3sQ==
-----END CERTIFICATE-----
