Certificate:
    Data:
        Version: 3 (0x2)
        Serial Number: 11 (0xb)
    Signature Algorithm: sha256WithRSAEncryption
        Issuer: CN=ChangeMe
        Validity
            Not Before: Mar  6 15:19:46 2016 GMT
            Not After : Mar  4 15:19:46 2026 GMT
        Subject: CN=0accd2db
        Subject Public Key Info:
            Public Key Algorithm: rsaEncryption
                Public-Key: (2048 bit)
                Modulus:
                    00:ca:73:92:fb:c2:28:5c:e9:86:69:ec:42:93:c9:
                    e4:65:4b:5d:fa:59:4d:65:16:3e:74:b9:7e:9e:6d:
                    4e:cc:ac:d1:87:b1:ad:4b:d4:a6:8b:4e:1d:d0:c5:
                    d9:9b:11:f2:c2:41:b1:ab:82:98:53:99:2f:37:cb:
                    35:15:3c:71:a7:9a:93:44:ff:7c:18:95:5d:45:8c:
                    5e:83:64:b2:84:76:1d:14:32:bb:16:0d:ef:45:bc:
                    98:47:b5:16:d1:91:4d:92:ee:e1:97:1e:25:2b:df:
                    75:be:bc:34:66:51:17:67:c4:90:a8:15:bd:a3:2f:
                    9e:f1:43:89:b5:52:1b:68:6d:96:93:bb:f8:3a:99:
                    09:38:d1:6d:fd:82:5b:53:02:66:85:2c:bf:8f:13:
                    0f:51:1d:9e:5f:e1:21:a9:1f:73:fb:0c:34:97:a4:
                    3f:94:df:96:10:17:11:5a:c2:fd:8e:ae:31:b5:fb:
                    0a:99:a0:b7:d2:ab:4d:c2:85:3b:02:a4:58:44:20:
                    0a:c3:7b:5f:f9:ea:b2:5a:0a:42:3b:70:16:e9:b4:
                    db:63:47:6c:b5:d7:6b:c6:78:2c:94:ce:3e:81:87:
                    fc:fe:ec:ca:a1:fe:06:d9:b9:d0:29:bd:c1:6c:34:
                    c3:4b:79:80:c3:aa:a8:de:1a:bb:e4:ff:eb:fb:2f:
                    d5:15
                Exponent: 65537 (0x10001)
        X509v3 extensions:
            X509v3 Basic Constraints: 
                CA:FALSE
            X509v3 Subject Key Identifier: 
                BC:F8:2A:3C:F6:FD:CD:7E:74:E5:C9:37:1C:CD:00:50:4C:2A:12:78
            X509v3 Authority Key Identifier: 
                keyid:30:30:47:5F:7C:6D:F2:BB:B6:C0:FC:32:24:20:33:94:37:35:70:A7
                DirName:/CN=ChangeMe
                serial:F2:90:F4:B3:35:FB:84:92

            X509v3 Extended Key Usage: 
                TLS Web Client Authentication
            X509v3 Key Usage: 
                Digital Signature
    Signature Algorithm: sha256WithRSAEncryption
         d2:4a:69:48:27:38:1f:cd:00:78:ce:a0:3a:2d:4f:26:bd:49:
         97:66:00:40:f3:dc:9a:e4:14:b0:ff:b0:10:54:a5:d8:2b:4c:
         e3:a4:be:5e:36:42:9a:45:46:d1:f5:2d:9f:a6:b3:1c:1f:5c:
         d4:50:b1:d7:48:ef:d0:eb:68:25:f4:76:b6:f5:6c:9a:61:d0:
         fa:eb:c4:b6:c3:c1:89:db:5b:02:4f:39:1f:36:c9:f8:8a:d1:
         03:4c:f2:12:05:30:2b:b9:0e:e1:56:bd:18:0d:4e:50:16:03:
         93:4f:25:1c:36:1c:3c:ed:29:af:04:6f:89:b8:fa:c9:cf:07:
         aa:4a:33:46:b9:60:c0:90:9d:95:dc:f3:5a:7d:5a:bf:1b:23:
         9c:44:dd:da:dd:e2:8f:76:75:15:50:70:e0:89:c6:55:bc:7f:
         fd:96:80:a5:48:ad:48:b1:0e:2f:b1:51:a0:c6:f1:89:d0:e5:
         de:ef:35:80:e9:f6:0f:9d:24:0a:a2:70:41:97:95:9c:2c:c8:
         07:53:fc:f0:3c:73:b5:3c:89:6a:05:af:20:11:d7:5e:f5:f0:
         af:55:6d:1a:0e:70:f5:d6:e6:24:31:f3:68:f5:21:f5:52:70:
         8e:94:0b:23:74:a4:32:45:93:4f:c5:f3:d7:cb:82:5a:c1:05:
         63:ea:d3:e0
-----BEGIN CERTIFICATE-----
MIIDNjCCAh6gAwIBAgIBCzANBgkqhkiG9w0BAQsFADATMREwDwYDVQQDDAhDaGFu
Z2VNZTAeFw0xNjAzMDYxNTE5NDZaFw0yNjAzMDQxNTE5NDZaMBMxETAPBgNVBAMM
CDBhY2NkMmRiMIIBIjANBgkqhkiG9w0BAQEFAAOCAQ8AMIIBCgKCAQEAynOS+8Io
XOmGaexCk8nkZUtd+llNZRY+dLl+nm1OzKzRh7GtS9Smi04d0MXZmxHywkGxq4KY
U5kvN8s1FTxxp5qTRP98GJVdRYxeg2SyhHYdFDK7Fg3vRbyYR7UW0ZFNku7hlx4l
K991vrw0ZlEXZ8SQqBW9oy+e8UOJtVIbaG2Wk7v4OpkJONFt/YJbUwJmhSy/jxMP
UR2eX+EhqR9z+ww0l6Q/lN+WEBcRWsL9jq4xtfsKmaC30qtNwoU7AqRYRCAKw3tf
+eqyWgpCO3AW6bTbY0dstddrxngslM4+gYf8/uzKof4G2bnQKb3BbDTDS3mAw6qo
3hq75P/r+y/VFQIDAQABo4GUMIGRMAkGA1UdEwQCMAAwHQYDVR0OBBYEFLz4Kjz2
/c1+dOXJNxzNAFBMKhJ4MEMGA1UdIwQ8MDqAFDAwR198bfK7tsD8MiQgM5Q3NXCn
oRekFTATMREwDwYDVQQDDAhDaGFuZ2VNZYIJAPKQ9LM1+4SSMBMGA1UdJQQMMAoG
CCsGAQUFBwMCMAsGA1UdDwQEAwIHgDANBgkqhkiG9w0BAQsFAAOCAQEA0kppSCc4
H80AeM6gOi1PJr1Jl2YAQPPcmuQUsP+wEFSl2CtM46S+XjZCmkVG0fUtn6azHB9c
1FCx10jv0OtoJfR2tvVsmmHQ+uvEtsPBidtbAk85HzbJ+IrRA0zyEgUwK7kO4Va9
GA1OUBYDk08lHDYcPO0prwRvibj6yc8HqkozRrlgwJCdldzzWn1avxsjnETd2t3i
j3Z1FVBw4InGVbx//ZaApUitSLEOL7FRoMbxidDl3u81gOn2D50kCqJwQZeVnCzI
B1P88DxztTyJagWvIBHXXvXwr1VtGg5w9dbmJDHzaPUh9VJwjpQLI3SkMkWTT8Xz
18uCWsEFY+rT4A==
-----END CERTIFICATE-----
