Certificate:
    Data:
        Version: 3 (0x2)
        Serial Number: 12 (0xc)
    Signature Algorithm: sha256WithRSAEncryption
        Issuer: CN=ChangeMe
        Validity
            Not Before: Mar  6 15:22:06 2016 GMT
            Not After : Mar  4 15:22:06 2026 GMT
        Subject: CN=82737c8d
        Subject Public Key Info:
            Public Key Algorithm: rsaEncryption
                Public-Key: (2048 bit)
                Modulus:
                    00:a8:1f:0e:55:d8:5e:82:b9:8c:91:48:3e:89:fd:
                    1f:f1:09:86:26:6c:4f:18:cf:33:6f:a5:88:96:61:
                    0a:40:a7:49:71:2a:50:dc:86:20:68:64:be:68:b0:
                    67:1e:05:04:4b:a7:41:9c:ec:18:34:94:82:b5:fb:
                    68:2a:ac:61:a9:8d:f5:97:a7:72:04:98:e5:4d:a0:
                    4e:1e:31:9c:a8:d6:c5:65:71:0f:18:08:e6:b9:72:
                    53:71:5b:55:e7:d2:8d:d5:36:37:8c:34:73:05:7d:
                    3e:86:d2:f1:5a:82:5d:c4:04:73:36:20:d3:e5:a5:
                    03:48:4d:b4:31:5d:46:0a:55:35:e4:bc:a8:4f:fb:
                    2e:24:5e:9d:7e:a0:4e:59:16:6e:5a:ab:33:24:23:
                    d9:06:44:ed:4f:ad:47:87:d7:b4:9d:1c:ae:4c:ff:
                    ce:18:0e:15:32:74:c5:1c:8c:41:4e:8c:2f:f4:18:
                    c3:5b:27:7b:b3:ed:77:3b:43:4c:21:00:58:a5:88:
                    65:3d:28:04:0c:3e:f6:44:d0:80:b9:9f:63:ab:04:
                    1c:84:7d:3a:84:0d:50:d8:83:29:0e:b9:98:1b:68:
                    e5:e9:7b:db:49:03:7f:a3:8c:0f:9d:16:03:66:b2:
                    31:9a:e5:98:19:5e:a6:f4:05:d5:00:6b:a4:b3:ef:
                    67:91
                Exponent: 65537 (0x10001)
        X509v3 extensions:
            X509v3 Basic Constraints: 
                CA:FALSE
            X509v3 Subject Key Identifier: 
                D3:55:CF:F5:EE:AD:3E:A1:3B:47:E7:88:1D:72:BE:46:39:47:2C:EC
            X509v3 Authority Key Identifier: 
                keyid:30:30:47:5F:7C:6D:F2:BB:B6:C0:FC:32:24:20:33:94:37:35:70:A7
                DirName:/CN=ChangeMe
                serial:F2:90:F4:B3:35:FB:84:92

            X509v3 Extended Key Usage: 
                TLS Web Client Authentication
            X509v3 Key Usage: 
                Digital Signature
    Signature Algorithm: sha256WithRSAEncryption
         80:c4:df:bb:56:5d:93:4a:42:7b:5a:3e:eb:a5:cb:0b:11:d8:
         01:0f:fa:f6:b8:1f:c1:1e:b4:8f:b6:ba:e8:c4:9a:60:61:2a:
         70:6d:0c:a5:89:73:4e:0f:86:50:29:ca:a2:12:9a:15:b7:aa:
         d6:c5:70:81:b1:c5:2a:23:a3:f2:29:79:be:81:5c:13:5b:0b:
         37:65:6b:c6:68:5a:38:e2:69:7a:f9:35:c0:4b:1b:0a:03:54:
         ba:fa:d1:e9:e3:9c:ba:1f:9f:a0:13:20:07:14:12:59:1a:cd:
         bd:0a:83:9f:83:93:a1:88:cb:9c:56:26:e1:ec:4b:85:15:8e:
         ac:d5:3a:09:af:9e:23:9f:0f:3b:ef:2f:ec:f8:ff:ac:c9:85:
         37:9e:4a:de:89:47:12:4c:35:37:82:c2:df:bb:fb:56:3d:58:
         6a:a5:1e:a7:58:7b:aa:2f:a0:13:2d:a8:89:a7:6b:70:ca:b4:
         7c:5c:ae:ce:a9:fa:51:8e:ff:9f:89:30:79:95:94:e4:2c:30:
         35:70:a8:89:42:a2:85:bb:12:bb:9e:97:ba:f8:1d:a8:b8:26:
         cc:17:0d:45:62:d1:d7:37:73:87:4f:9c:cd:21:33:c2:10:41:
         27:ff:da:81:b7:1e:6e:c6:f5:fb:13:de:49:af:ab:2e:5d:e5:
         25:77:2b:69
-----BEGIN CERTIFICATE-----
MIIDNjCCAh6gAwIBAgIBDDANBgkqhkiG9w0BAQsFADATMREwDwYDVQQDDAhDaGFu
Z2VNZTAeFw0xNjAzMDYxNTIyMDZaFw0yNjAzMDQxNTIyMDZaMBMxETAPBgNVBAMM
CDgyNzM3YzhkMIIBIjANBgkqhkiG9w0BAQEFAAOCAQ8AMIIBCgKCAQEAqB8OVdhe
grmMkUg+if0f8QmGJmxPGM8zb6WIlmEKQKdJcSpQ3IYgaGS+aLBnHgUES6dBnOwY
NJSCtftoKqxhqY31l6dyBJjlTaBOHjGcqNbFZXEPGAjmuXJTcVtV59KN1TY3jDRz
BX0+htLxWoJdxARzNiDT5aUDSE20MV1GClU15LyoT/suJF6dfqBOWRZuWqszJCPZ
BkTtT61Hh9e0nRyuTP/OGA4VMnTFHIxBTowv9BjDWyd7s+13O0NMIQBYpYhlPSgE
DD72RNCAuZ9jqwQchH06hA1Q2IMpDrmYG2jl6XvbSQN/o4wPnRYDZrIxmuWYGV6m
9AXVAGuks+9nkQIDAQABo4GUMIGRMAkGA1UdEwQCMAAwHQYDVR0OBBYEFNNVz/Xu
rT6hO0fniB1yvkY5RyzsMEMGA1UdIwQ8MDqAFDAwR198bfK7tsD8MiQgM5Q3NXCn
oRekFTATMREwDwYDVQQDDAhDaGFuZ2VNZYIJAPKQ9LM1+4SSMBMGA1UdJQQMMAoG
CCsGAQUFBwMCMAsGA1UdDwQEAwIHgDANBgkqhkiG9w0BAQsFAAOCAQEAgMTfu1Zd
k0pCe1o+66XLCxHYAQ/69rgfwR60j7a66MSaYGEqcG0MpYlzTg+GUCnKohKaFbeq
1sVwgbHFKiOj8il5voFcE1sLN2VrxmhaOOJpevk1wEsbCgNUuvrR6eOcuh+foBMg
BxQSWRrNvQqDn4OToYjLnFYm4exLhRWOrNU6Ca+eI58PO+8v7Pj/rMmFN55K3olH
Ekw1N4LC37v7Vj1YaqUep1h7qi+gEy2oiadrcMq0fFyuzqn6UY7/n4kweZWU5Cww
NXCoiUKihbsSu56XuvgdqLgmzBcNRWLR1zdzh0+czSEzwhBBJ//agbcebsb1+xPe
Sa+rLl3lJXcraQ==
-----END CERTIFICATE-----
