Certificate:
    Data:
        Version: 3 (0x2)
        Serial Number: 13 (0xd)
    Signature Algorithm: sha256WithRSAEncryption
        Issuer: CN=ChangeMe
        Validity
            Not Before: Mar  6 15:59:04 2016 GMT
            Not After : Mar  4 15:59:04 2026 GMT
        Subject: CN=8e8ac9e9
        Subject Public Key Info:
            Public Key Algorithm: rsaEncryption
                Public-Key: (2048 bit)
                Modulus:
                    00:b3:d4:01:af:16:c4:e4:ba:f3:0f:01:c3:3a:fa:
                    93:3a:16:28:58:ee:cf:d1:ab:14:67:48:5b:dc:f2:
                    15:d0:38:2e:4f:3c:da:52:22:5d:61:79:82:e6:7f:
                    f6:4a:a2:b0:90:f7:63:3e:42:3d:91:89:44:a8:a2:
                    47:94:c6:ab:88:cd:53:3a:cf:d2:2c:ea:73:68:2d:
                    f3:b5:f1:a0:d8:c8:55:cf:95:76:a6:48:77:a6:b4:
                    a1:e4:57:b3:dc:c2:64:87:af:2f:31:b4:cc:b4:11:
                    7f:d5:9c:1e:95:e7:0a:b7:82:e7:ed:fa:fe:ff:a4:
                    7e:73:9f:3b:a5:34:49:fe:1f:25:4e:d0:fc:f7:a9:
                    ac:87:57:92:04:69:1c:72:41:0e:90:60:3c:59:87:
                    d4:84:68:b6:d2:17:12:d6:e9:8d:35:76:36:85:32:
                    d1:5f:16:a1:c2:f2:37:5f:bd:54:6e:5f:f6:36:d3:
                    c9:75:62:56:06:f0:81:04:23:0c:d3:99:77:24:fa:
                    ad:70:72:00:8e:c9:55:3d:bc:01:ab:4c:07:68:2f:
                    0f:ae:a2:74:9a:7b:4f:30:b8:3e:db:07:6f:50:bc:
                    20:2b:cb:f1:51:17:48:cf:5f:91:91:7c:c0:33:a0:
                    33:09:7f:be:b0:f7:0d:9e:27:c2:c0:20:7d:8b:33:
                    c8:f1
                Exponent: 65537 (0x10001)
        X509v3 extensions:
            X509v3 Basic Constraints: 
                CA:FALSE
            X509v3 Subject Key Identifier: 
                1C:44:A0:CA:81:0A:A1:A0:79:C9:32:98:56:4E:CD:AD:4A:0D:06:F9
            X509v3 Authority Key Identifier: 
                keyid:30:30:47:5F:7C:6D:F2:BB:B6:C0:FC:32:24:20:33:94:37:35:70:A7
                DirName:/CN=ChangeMe
                serial:F2:90:F4:B3:35:FB:84:92

            X509v3 Extended Key Usage: 
                TLS Web Client Authentication
            X509v3 Key Usage: 
                Digital Signature
    Signature Algorithm: sha256WithRSAEncryption
         aa:e7:7a:96:75:13:7a:91:61:76:e3:ce:19:af:c6:e4:b2:f1:
         d9:ed:95:68:ea:4f:94:0a:10:44:19:26:7b:66:f2:64:f2:e9:
         c0:23:22:b0:a7:b9:16:03:e6:8e:c4:ed:06:8e:c4:4a:7c:f9:
         28:29:f3:da:3d:62:0c:be:d4:82:1a:05:d3:14:79:bb:69:d1:
         b9:23:f1:12:72:1d:3d:46:b0:af:cf:c1:a8:74:ff:b1:f6:b0:
         e7:3d:40:de:e3:53:5e:8c:34:6b:23:b6:28:05:6a:f7:9f:8a:
         76:0c:ec:c1:ff:61:fc:69:8d:6f:e8:5c:5f:fc:15:45:da:d9:
         55:9c:e9:d1:8e:be:f3:00:0e:f0:51:a4:21:d7:9a:74:9c:f4:
         76:08:3d:b5:2d:36:10:ad:5f:f4:ba:f2:46:ea:87:41:c7:29:
         5f:33:75:f1:54:2c:e4:40:2e:f5:85:2c:94:a6:3b:de:4d:10:
         8a:31:95:a4:fb:85:60:10:22:ea:2f:45:d1:66:37:62:29:ff:
         06:b1:f4:46:62:f4:da:8b:d4:30:e1:ff:f5:df:e0:2e:03:a0:
         4c:a8:9c:8d:b9:b6:59:c8:70:7a:65:dd:f6:e3:cc:1c:2b:ea:
         e6:14:29:5c:44:34:cd:67:83:81:ee:8c:46:f1:62:1c:8d:48:
         06:8a:9a:df
-----BEGIN CERTIFICATE-----
MIIDNjCCAh6gAwIBAgIBDTANBgkqhkiG9w0BAQsFADATMREwDwYDVQQDDAhDaGFu
Z2VNZTAeFw0xNjAzMDYxNTU5MDRaFw0yNjAzMDQxNTU5MDRaMBMxETAPBgNVBAMM
CDhlOGFjOWU5MIIBIjANBgkqhkiG9w0BAQEFAAOCAQ8AMIIBCgKCAQEAs9QBrxbE
5LrzDwHDOvqTOhYoWO7P0asUZ0hb3PIV0DguTzzaUiJdYXmC5n/2SqKwkPdjPkI9
kYlEqKJHlMariM1TOs/SLOpzaC3ztfGg2MhVz5V2pkh3prSh5Fez3MJkh68vMbTM
tBF/1ZwelecKt4Ln7fr+/6R+c587pTRJ/h8lTtD896msh1eSBGkcckEOkGA8WYfU
hGi20hcS1umNNXY2hTLRXxahwvI3X71Ubl/2NtPJdWJWBvCBBCMM05l3JPqtcHIA
jslVPbwBq0wHaC8PrqJ0mntPMLg+2wdvULwgK8vxURdIz1+RkXzAM6AzCX++sPcN
nifCwCB9izPI8QIDAQABo4GUMIGRMAkGA1UdEwQCMAAwHQYDVR0OBBYEFBxEoMqB
CqGgeckymFZOza1KDQb5MEMGA1UdIwQ8MDqAFDAwR198bfK7tsD8MiQgM5Q3NXCn
oRekFTATMREwDwYDVQQDDAhDaGFuZ2VNZYIJAPKQ9LM1+4SSMBMGA1UdJQQMMAoG
CCsGAQUFBwMCMAsGA1UdDwQEAwIHgDANBgkqhkiG9w0BAQsFAAOCAQEAqud6lnUT
epFhduPOGa/G5LLx2e2VaOpPlAoQRBkme2byZPLpwCMisKe5FgPmjsTtBo7ESnz5
KCnz2j1iDL7UghoF0xR5u2nRuSPxEnIdPUawr8/BqHT/sfaw5z1A3uNTXow0ayO2
KAVq95+Kdgzswf9h/GmNb+hcX/wVRdrZVZzp0Y6+8wAO8FGkIdeadJz0dgg9tS02
EK1f9LryRuqHQccpXzN18VQs5EAu9YUslKY73k0QijGVpPuFYBAi6i9F0WY3Yin/
BrH0RmL02ovUMOH/9d/gLgOgTKicjbm2WchwemXd9uPMHCvq5hQpXEQ0zWeDge6M
RvFiHI1IBoqa3w==
-----END CERTIFICATE-----
