Certificate:
    Data:
        Version: 3 (0x2)
        Serial Number: 14 (0xe)
    Signature Algorithm: sha256WithRSAEncryption
        Issuer: CN=ChangeMe
        Validity
            Not Before: Mar  6 16:04:37 2016 GMT
            Not After : Mar  4 16:04:37 2026 GMT
        Subject: CN=bdb87e1a
        Subject Public Key Info:
            Public Key Algorithm: rsaEncryption
                Public-Key: (2048 bit)
                Modulus:
                    00:a2:a3:5e:b9:81:32:55:02:76:7d:e8:4b:22:78:
                    5f:90:c1:28:40:a4:5e:bc:76:e6:54:c3:c6:4f:0d:
                    ef:38:ad:41:e3:53:9f:3f:38:3c:01:83:dc:80:8a:
                    3d:13:44:3f:79:48:54:80:ed:d3:25:88:fe:c6:2e:
                    2c:f4:76:83:c8:23:fc:5a:55:42:43:77:1a:bf:ca:
                    50:be:0a:e8:27:e3:20:c0:35:70:53:02:b3:2b:62:
                    b5:99:c5:5c:fe:a2:8e:b2:a7:cc:c2:de:0e:7e:99:
                    27:f9:1b:08:d2:25:02:5a:f2:c2:9e:d7:6c:38:fd:
                    e0:22:cf:18:00:f0:e3:a2:b8:83:cc:1a:90:1a:52:
                    62:25:50:0a:48:ac:46:a0:ce:f7:2f:93:8a:79:37:
                    9d:95:38:fe:ba:bc:6e:a3:3c:24:13:7c:8f:88:d6:
                    c9:95:8a:4e:9c:ae:04:bd:08:34:93:b0:53:eb:68:
                    ed:e3:39:67:a7:4d:01:d9:6e:61:8d:29:c1:d5:e6:
                    61:e2:dc:f3:2b:4d:66:1a:5f:73:f1:ae:60:44:ac:
                    46:8a:53:1f:5c:69:46:53:43:29:1a:7a:51:ae:92:
                    aa:31:09:08:a8:90:12:cf:b8:10:b8:95:6f:63:db:
                    6d:9a:d0:18:5f:b5:3d:fd:91:35:61:50:ec:ca:f5:
                    56:ed
                Exponent: 65537 (0x10001)
        X509v3 extensions:
            X509v3 Basic Constraints: 
                CA:FALSE
            X509v3 Subject Key Identifier: 
                88:C6:31:33:9E:E8:13:1F:00:C8:78:29:E9:34:EE:80:C9:AC:4C:F8
            X509v3 Authority Key Identifier: 
                keyid:30:30:47:5F:7C:6D:F2:BB:B6:C0:FC:32:24:20:33:94:37:35:70:A7
                DirName:/CN=ChangeMe
                serial:F2:90:F4:B3:35:FB:84:92

            X509v3 Extended Key Usage: 
                TLS Web Client Authentication
            X509v3 Key Usage: 
                Digital Signature
    Signature Algorithm: sha256WithRSAEncryption
         8c:e9:69:61:b1:76:9e:75:39:5c:65:c0:e1:8b:ce:fd:b0:8b:
         88:7d:ab:6a:95:c1:d2:31:ae:14:40:c4:c8:be:a3:47:76:9e:
         f4:85:d3:79:d7:2e:28:df:a4:66:eb:5a:4a:6c:f5:bb:bb:60:
         4c:86:2c:b6:9a:f9:1f:70:69:4a:78:0c:b9:d8:28:7d:29:1d:
         61:34:b8:82:76:78:46:a7:32:e3:dc:8c:bd:f8:d9:87:a2:6a:
         9d:df:60:05:1e:5a:c8:96:13:05:79:00:6a:55:74:6e:36:e6:
         17:96:5e:73:91:2b:82:b8:45:e1:11:c0:f4:e7:92:5b:dc:b6:
         8b:52:f4:63:ff:c6:97:b3:9e:a6:cc:f9:81:2d:09:b0:39:bd:
         6a:6c:22:09:53:5a:8c:d0:0b:fc:24:9d:dd:b6:40:e3:d7:7e:
         73:b6:ac:1f:f7:fa:45:16:38:fc:77:f8:05:9e:d8:86:f9:d0:
         e9:ac:71:1e:04:74:06:d3:72:ed:03:0a:32:85:8f:8f:76:53:
         34:fc:f1:e8:49:69:12:98:d3:44:84:20:83:ca:b0:9b:7c:4d:
         1f:51:77:6c:b5:c0:ea:50:23:fd:f5:1b:f9:9f:a9:06:f6:ed:
         f1:7d:e9:ae:e8:c4:ba:a2:56:f4:22:b5:33:f0:f9:20:cc:ef:
         d9:39:30:ee
-----BEGIN CERTIFICATE-----
MIIDNjCCAh6gAwIBAgIBDjANBgkqhkiG9w0BAQsFADATMREwDwYDVQQDDAhDaGFu
Z2VNZTAeFw0xNjAzMDYxNjA0MzdaFw0yNjAzMDQxNjA0MzdaMBMxETAPBgNVBAMM
CGJkYjg3ZTFhMIIBIjANBgkqhkiG9w0BAQEFAAOCAQ8AMIIBCgKCAQEAoqNeuYEy
VQJ2fehLInhfkMEoQKRevHbmVMPGTw3vOK1B41OfPzg8AYPcgIo9E0Q/eUhUgO3T
JYj+xi4s9HaDyCP8WlVCQ3cav8pQvgroJ+MgwDVwUwKzK2K1mcVc/qKOsqfMwt4O
fpkn+RsI0iUCWvLCntdsOP3gIs8YAPDjoriDzBqQGlJiJVAKSKxGoM73L5OKeTed
lTj+urxuozwkE3yPiNbJlYpOnK4EvQg0k7BT62jt4zlnp00B2W5hjSnB1eZh4tzz
K01mGl9z8a5gRKxGilMfXGlGU0MpGnpRrpKqMQkIqJASz7gQuJVvY9ttmtAYX7U9
/ZE1YVDsyvVW7QIDAQABo4GUMIGRMAkGA1UdEwQCMAAwHQYDVR0OBBYEFIjGMTOe
6BMfAMh4Kek07oDJrEz4MEMGA1UdIwQ8MDqAFDAwR198bfK7tsD8MiQgM5Q3NXCn
oRekFTATMREwDwYDVQQDDAhDaGFuZ2VNZYIJAPKQ9LM1+4SSMBMGA1UdJQQMMAoG
CCsGAQUFBwMCMAsGA1UdDwQEAwIHgDANBgkqhkiG9w0BAQsFAAOCAQEAjOlpYbF2
nnU5XGXA4YvO/bCLiH2rapXB0jGuFEDEyL6jR3ae9IXTedcuKN+kZutaSmz1u7tg
TIYstpr5H3BpSngMudgofSkdYTS4gnZ4Rqcy49yMvfjZh6Jqnd9gBR5ayJYTBXkA
alV0bjbmF5Zec5ErgrhF4RHA9OeSW9y2i1L0Y//Gl7Oepsz5gS0JsDm9amwiCVNa
jNAL/CSd3bZA49d+c7asH/f6RRY4/Hf4BZ7YhvnQ6axxHgR0BtNy7QMKMoWPj3ZT
NPzx6ElpEpjTRIQgg8qwm3xNH1F3bLXA6lAj/fUb+Z+pBvbt8X3prujEuqJW9CK1
M/D5IMzv2Tkw7g==
-----END CERTIFICATE-----
