Certificate:
    Data:
        Version: 3 (0x2)
        Serial Number: 15 (0xf)
    Signature Algorithm: sha256WithRSAEncryption
        Issuer: CN=ChangeMe
        Validity
            Not Before: Mar  6 16:19:51 2016 GMT
            Not After : Mar  4 16:19:51 2026 GMT
        Subject: CN=8c3bf574
        Subject Public Key Info:
            Public Key Algorithm: rsaEncryption
                Public-Key: (2048 bit)
                Modulus:
                    00:aa:99:fe:3b:2e:69:23:69:c7:cb:a8:e0:c0:52:
                    1c:be:80:a1:80:69:df:5d:d8:62:80:f5:1e:08:6e:
                    c4:95:e7:3b:94:a8:21:2c:d1:5b:94:52:fc:4d:49:
                    32:ee:62:16:55:d7:c3:f6:19:9a:de:cd:f0:69:c9:
                    57:78:ef:42:f4:48:ec:bc:43:43:50:f6:b3:cb:0d:
                    30:8c:88:21:68:a6:21:78:9a:54:5d:f6:4a:f4:0e:
                    4f:7e:0a:93:31:f9:d7:8a:e6:3f:d7:9d:27:ce:f8:
                    ce:06:51:d4:05:3a:60:0a:80:b2:a4:96:a9:c7:bf:
                    91:e5:18:4d:9d:a5:ae:33:80:58:16:46:53:03:9b:
                    c5:74:dc:48:51:df:fb:99:66:91:c5:92:9c:79:d5:
                    66:21:f1:a6:45:67:87:cc:b2:32:74:29:59:2b:48:
                    22:38:34:67:82:0e:90:de:55:f8:57:59:b1:49:dd:
                    b1:92:67:4d:33:88:26:7e:9a:d7:54:46:a5:ac:17:
                    dc:e7:59:ed:53:3e:30:a6:4e:49:ab:a8:d0:17:bd:
                    a3:e2:9a:f5:b6:5b:17:4e:4e:d7:d8:f0:6f:ec:14:
                    5a:a5:d7:70:1b:51:30:43:87:00:cc:0c:aa:f6:8f:
                    f9:06:d0:d7:b6:ea:73:27:1f:d2:29:58:e9:d7:9c:
                    24:9d
                Exponent: 65537 (0x10001)
        X509v3 extensions:
            X509v3 Basic Constraints: 
                CA:FALSE
            X509v3 Subject Key Identifier: 
                F7:F0:6E:47:CB:18:59:1B:53:E1:52:DA:C7:C0:93:91:24:AD:DA:E9
            X509v3 Authority Key Identifier: 
                keyid:30:30:47:5F:7C:6D:F2:BB:B6:C0:FC:32:24:20:33:94:37:35:70:A7
                DirName:/CN=ChangeMe
                serial:F2:90:F4:B3:35:FB:84:92

            X509v3 Extended Key Usage: 
                TLS Web Client Authentication
            X509v3 Key Usage: 
                Digital Signature
    Signature Algorithm: sha256WithRSAEncryption
         b5:29:ab:1c:4e:f9:29:4e:19:0f:bc:9a:49:e4:68:f3:25:11:
         21:b2:ca:a8:7b:2f:d3:7d:54:47:e3:1b:86:9c:42:a8:14:e5:
         8b:a5:a9:e8:ea:02:2f:26:10:5a:21:d7:fa:fb:25:ec:bb:78:
         09:73:23:c5:77:9a:e5:e1:1f:08:32:c5:ca:3c:fd:52:d0:fc:
         d7:d3:12:8c:5e:80:87:44:74:e1:e5:b1:93:7d:d7:cd:fd:a0:
         c1:00:e5:6e:9b:ac:3b:ce:0e:5c:85:4a:d4:ef:10:28:72:62:
         a7:3e:3e:af:14:38:5f:c4:b4:b7:6a:5b:6b:51:f1:88:e6:ae:
         56:08:96:94:36:6a:ab:af:aa:f2:e2:73:c6:fb:b5:37:69:aa:
         0b:92:9f:9b:8e:6e:44:e3:c4:ba:70:9e:8b:f9:37:12:00:d1:
         16:ca:d3:b4:42:76:59:39:f5:bc:11:c9:3f:7e:d5:04:dd:97:
         6b:35:e3:b5:8d:25:80:57:3f:21:72:c0:f7:36:0f:48:cc:fa:
         40:b7:4e:cb:cf:06:d8:1a:1f:a6:cf:52:59:89:4a:9c:cc:8a:
         f8:ef:04:68:5f:c9:5b:2b:f0:24:37:ac:0f:21:e4:29:9e:93:
         f1:3d:05:37:ff:5d:68:74:8b:74:ba:18:e4:bc:04:64:b2:4c:
         7a:57:e8:7e
-----BEGIN CERTIFICATE-----
MIIDNjCCAh6gAwIBAgIBDzANBgkqhkiG9w0BAQsFADATMREwDwYDVQQDDAhDaGFu
Z2VNZTAeFw0xNjAzMDYxNjE5NTFaFw0yNjAzMDQxNjE5NTFaMBMxETAPBgNVBAMM
CDhjM2JmNTc0MIIBIjANBgkqhkiG9w0BAQEFAAOCAQ8AMIIBCgKCAQEAqpn+Oy5p
I2nHy6jgwFIcvoChgGnfXdhigPUeCG7Elec7lKghLNFblFL8TUky7mIWVdfD9hma
3s3waclXeO9C9EjsvENDUPazyw0wjIghaKYheJpUXfZK9A5PfgqTMfnXiuY/150n
zvjOBlHUBTpgCoCypJapx7+R5RhNnaWuM4BYFkZTA5vFdNxIUd/7mWaRxZKcedVm
IfGmRWeHzLIydClZK0giODRngg6Q3lX4V1mxSd2xkmdNM4gmfprXVEalrBfc51nt
Uz4wpk5Jq6jQF72j4pr1tlsXTk7X2PBv7BRapddwG1EwQ4cAzAyq9o/5BtDXtupz
Jx/SKVjp15wknQIDAQABo4GUMIGRMAkGA1UdEwQCMAAwHQYDVR0OBBYEFPfwbkfL
GFkbU+FS2sfAk5EkrdrpMEMGA1UdIwQ8MDqAFDAwR198bfK7tsD8MiQgM5Q3NXCn
oRekFTATMREwDwYDVQQDDAhDaGFuZ2VNZYIJAPKQ9LM1+4SSMBMGA1UdJQQMMAoG
CCsGAQUFBwMCMAsGA1UdDwQEAwIHgDANBgkqhkiG9w0BAQsFAAOCAQEAtSmrHE75
KU4ZD7yaSeRo8yURIbLKqHsv031UR+MbhpxCqBTli6Wp6OoCLyYQWiHX+vsl7Lt4
CXMjxXea5eEfCDLFyjz9UtD819MSjF6Ah0R04eWxk33Xzf2gwQDlbpusO84OXIVK
1O8QKHJipz4+rxQ4X8S0t2pba1HxiOauVgiWlDZqq6+q8uJzxvu1N2mqC5Kfm45u
ROPEunCei/k3EgDRFsrTtEJ2WTn1vBHJP37VBN2XazXjtY0lgFc/IXLA9zYPSMz6
QLdOy88G2Bofps9SWYlKnMyK+O8EaF/JWyvwJDesDyHkKZ6T8T0FN/9daHSLdLoY
5LwEZLJMelfofg==
-----END CERTIFICATE-----
