Certificate:
    Data:
        Version: 3 (0x2)
        Serial Number: 16 (0x10)
    Signature Algorithm: sha256WithRSAEncryption
        Issuer: CN=ChangeMe
        Validity
            Not Before: Mar  6 16:58:17 2016 GMT
            Not After : Mar  4 16:58:17 2026 GMT
        Subject: CN=a8e22410
        Subject Public Key Info:
            Public Key Algorithm: rsaEncryption
                Public-Key: (2048 bit)
                Modulus:
                    00:ca:59:67:54:c2:c4:c3:a5:50:8c:16:75:a3:0d:
                    f1:17:27:15:f6:b1:e7:41:0e:1b:d1:d3:c2:93:08:
                    54:9e:cc:81:b6:7b:a8:26:56:d9:5f:b7:a9:13:df:
                    95:6b:5a:19:45:58:27:f9:bf:a0:cb:c7:3a:72:33:
                    2e:7e:48:c4:4d:fc:e2:47:ca:23:96:1d:8c:c3:92:
                    02:1b:fb:e1:f8:59:98:8d:40:17:33:45:2d:39:3d:
                    1e:b9:df:e1:2e:69:3f:4d:c4:64:3f:7e:62:e8:01:
                    15:12:61:6d:05:2d:9d:bf:2c:cc:f9:cd:22:14:62:
                    4f:b9:46:c0:03:7c:be:64:aa:d5:95:69:f6:ec:36:
                    18:13:62:c6:4a:3b:ea:2a:23:6e:a3:ca:56:b7:fe:
                    fd:44:3e:c0:7e:e6:c0:2a:70:c8:16:e7:d1:05:16:
                    db:85:a0:5c:94:4b:11:e1:c5:96:d0:eb:68:71:6f:
                    e9:e6:6d:f1:6d:da:a0:bd:4b:7f:4a:54:41:dc:38:
                    23:18:01:5d:69:46:bb:73:f7:b5:45:dc:76:ff:7d:
                    f9:84:33:eb:dd:18:c2:2e:65:1b:99:df:d4:b2:ab:
                    7a:63:1d:51:c6:c0:e4:cb:87:eb:65:0b:44:af:f7:
                    1c:43:2e:2a:43:57:50:94:9b:8b:bf:55:db:5a:7b:
                    82:63
                Exponent: 65537 (0x10001)
        X509v3 extensions:
            X509v3 Basic Constraints: 
                CA:FALSE
            X509v3 Subject Key Identifier: 
                3F:8B:5C:99:38:E0:D2:40:BD:B4:26:3B:81:4C:5A:AF:41:7D:B0:59
            X509v3 Authority Key Identifier: 
                keyid:30:30:47:5F:7C:6D:F2:BB:B6:C0:FC:32:24:20:33:94:37:35:70:A7
                DirName:/CN=ChangeMe
                serial:F2:90:F4:B3:35:FB:84:92

            X509v3 Extended Key Usage: 
                TLS Web Client Authentication
            X509v3 Key Usage: 
                Digital Signature
    Signature Algorithm: sha256WithRSAEncryption
         1f:8c:4e:4e:79:b4:4e:e0:f9:67:c4:2b:29:8a:ce:31:c8:ee:
         81:a3:39:c5:1b:be:b7:26:fe:ce:64:d9:6f:4a:dc:8c:24:37:
         f9:ea:bc:c4:11:b6:59:20:b9:eb:4f:08:7f:1c:3c:9e:9d:90:
         92:5d:1e:c6:2a:48:d1:71:12:ee:c9:67:91:19:50:c8:47:38:
         48:47:0a:5d:d8:b5:3f:5e:30:43:63:f1:ac:ef:20:63:d0:8c:
         54:f2:1a:0c:fb:9a:de:c1:d0:64:27:2d:b6:78:1c:d6:41:ab:
         c5:f6:1a:be:f0:ef:7c:39:ad:d3:8e:91:bf:ba:03:41:d1:e4:
         79:f5:10:03:8a:06:8d:17:56:44:6c:e3:98:eb:12:44:1c:69:
         02:51:c4:97:c8:b3:56:ad:4a:63:4b:94:31:8f:5e:6c:cc:c8:
         19:09:6b:8b:91:91:d5:33:a5:60:77:f8:f6:e6:21:7c:84:12:
         18:0a:c6:36:a9:0b:2a:6c:4c:0c:e3:48:b9:2f:b4:b8:58:09:
         6b:4e:89:2a:c7:58:80:31:1d:ac:be:37:71:1a:ad:25:96:b5:
         fd:5a:bd:2b:79:fa:68:c0:9f:23:fe:57:18:56:fe:8c:00:3f:
         91:b1:5f:b7:d1:e5:56:08:ab:14:4c:d8:05:82:7f:d6:90:48:
         00:22:51:3a
-----BEGIN CERTIFICATE-----
MIIDNjCCAh6gAwIBAgIBEDANBgkqhkiG9w0BAQsFADATMREwDwYDVQQDDAhDaGFu
Z2VNZTAeFw0xNjAzMDYxNjU4MTdaFw0yNjAzMDQxNjU4MTdaMBMxETAPBgNVBAMM
CGE4ZTIyNDEwMIIBIjANBgkqhkiG9w0BAQEFAAOCAQ8AMIIBCgKCAQEAyllnVMLE
w6VQjBZ1ow3xFycV9rHnQQ4b0dPCkwhUnsyBtnuoJlbZX7epE9+Va1oZRVgn+b+g
y8c6cjMufkjETfziR8ojlh2Mw5ICG/vh+FmYjUAXM0UtOT0eud/hLmk/TcRkP35i
6AEVEmFtBS2dvyzM+c0iFGJPuUbAA3y+ZKrVlWn27DYYE2LGSjvqKiNuo8pWt/79
RD7AfubAKnDIFufRBRbbhaBclEsR4cWW0OtocW/p5m3xbdqgvUt/SlRB3DgjGAFd
aUa7c/e1Rdx2/335hDPr3RjCLmUbmd/Usqt6Yx1RxsDky4frZQtEr/ccQy4qQ1dQ
lJuLv1XbWnuCYwIDAQABo4GUMIGRMAkGA1UdEwQCMAAwHQYDVR0OBBYEFD+LXJk4
4NJAvbQmO4FMWq9BfbBZMEMGA1UdIwQ8MDqAFDAwR198bfK7tsD8MiQgM5Q3NXCn
oRekFTATMREwDwYDVQQDDAhDaGFuZ2VNZYIJAPKQ9LM1+4SSMBMGA1UdJQQMMAoG
CCsGAQUFBwMCMAsGA1UdDwQEAwIHgDANBgkqhkiG9w0BAQsFAAOCAQEAH4xOTnm0
TuD5Z8QrKYrOMcjugaM5xRu+tyb+zmTZb0rcjCQ3+eq8xBG2WSC5608Ifxw8np2Q
kl0exipI0XES7slnkRlQyEc4SEcKXdi1P14wQ2PxrO8gY9CMVPIaDPua3sHQZCct
tngc1kGrxfYavvDvfDmt046Rv7oDQdHkefUQA4oGjRdWRGzjmOsSRBxpAlHEl8iz
Vq1KY0uUMY9ebMzIGQlri5GR1TOlYHf49uYhfIQSGArGNqkLKmxMDONIuS+0uFgJ
a06JKsdYgDEdrL43cRqtJZa1/Vq9K3n6aMCfI/5XGFb+jAA/kbFft9HlVgirFEzY
BYJ/1pBIACJROg==
-----END CERTIFICATE-----
