Certificate:
    Data:
        Version: 3 (0x2)
        Serial Number: 17 (0x11)
    Signature Algorithm: sha256WithRSAEncryption
        Issuer: CN=ChangeMe
        Validity
            Not Before: Mar  6 17:01:48 2016 GMT
            Not After : Mar  4 17:01:48 2026 GMT
        Subject: CN=f3454d4e
        Subject Public Key Info:
            Public Key Algorithm: rsaEncryption
                Public-Key: (2048 bit)
                Modulus:
                    00:be:8f:4a:bc:0c:fb:04:5b:b7:a2:eb:a8:73:73:
                    0e:ec:ef:a4:5d:ad:99:40:1d:83:e8:be:26:c8:46:
                    40:0b:fa:8e:57:55:a3:27:c1:bd:55:14:47:5e:46:
                    87:f2:7a:ac:0f:f9:57:3e:07:4e:47:0b:cc:29:a4:
                    28:64:dd:67:9e:f6:93:40:4f:dd:f9:f7:ce:77:bd:
                    d2:62:1b:1e:a4:1d:52:96:87:ff:02:16:ad:0c:25:
                    cb:45:92:b9:88:dc:d6:b3:60:f0:31:fc:ec:7f:32:
                    43:85:bc:9d:8f:15:8e:3c:ce:b5:01:6e:eb:8f:b7:
                    3a:5f:a2:fd:9c:ae:3f:b6:42:47:5b:f9:76:87:21:
                    1d:0f:5f:7c:30:1d:12:77:f7:97:bc:2f:05:3a:b9:
                    fb:23:eb:38:4a:44:f8:bd:18:67:eb:41:d0:ce:a1:
                    bb:be:cd:30:8f:fd:b5:5e:bb:66:3e:9c:b6:00:3f:
                    89:c8:6a:8a:44:02:94:67:c3:89:ed:ad:62:35:c6:
                    c0:c1:20:43:09:23:a4:18:66:ac:41:65:67:a4:2d:
                    b3:9c:3d:fc:79:66:14:20:82:37:9a:75:11:55:c4:
                    cd:de:5f:9d:7f:cb:7e:f7:a4:a0:11:ec:54:6f:ad:
                    38:87:2a:2f:aa:50:b7:27:e3:3e:aa:9d:01:89:bb:
                    89:4b
                Exponent: 65537 (0x10001)
        X509v3 extensions:
            X509v3 Basic Constraints: 
                CA:FALSE
            X509v3 Subject Key Identifier: 
                A6:EE:85:F6:05:11:DD:97:C3:EE:1B:8C:91:D4:48:0D:EE:0C:E2:D9
            X509v3 Authority Key Identifier: 
                keyid:30:30:47:5F:7C:6D:F2:BB:B6:C0:FC:32:24:20:33:94:37:35:70:A7
                DirName:/CN=ChangeMe
                serial:F2:90:F4:B3:35:FB:84:92

            X509v3 Extended Key Usage: 
                TLS Web Client Authentication
            X509v3 Key Usage: 
                Digital Signature
    Signature Algorithm: sha256WithRSAEncryption
         2d:94:e9:c9:84:c7:dd:26:ed:4f:71:6f:ac:36:c4:bb:83:62:
         57:bd:06:62:02:21:33:19:0e:df:46:3e:84:5c:12:ad:c3:a5:
         ec:bb:cf:68:5b:1c:9e:58:7e:c6:63:41:e7:a4:07:80:2e:f4:
         87:62:a8:5d:f3:b0:66:9d:da:e6:ee:71:85:70:45:e5:65:4e:
         77:90:77:6f:db:e2:24:f2:53:f6:f4:cc:72:09:0c:5f:ec:5b:
         1a:cb:b1:58:80:12:94:7a:22:9f:78:00:0c:f2:27:3d:2c:8d:
         1c:4b:02:33:b3:70:11:67:bc:de:0e:6c:5c:a2:5b:6a:a9:ee:
         a6:e1:6a:96:be:af:19:a2:6c:d7:c3:63:09:49:84:f6:ce:fc:
         fc:e3:26:d3:94:11:bc:84:a5:07:fb:03:20:12:df:ed:f0:0d:
         f4:f3:bd:14:bc:49:87:ac:8e:2a:e9:56:d6:76:00:85:f7:09:
         73:85:97:81:8e:7a:e6:5d:7b:f8:58:62:12:b3:8d:86:c4:59:
         e7:9f:74:a0:c3:f7:90:f0:43:ab:8d:8c:53:bb:e1:2a:4d:da:
         42:53:d0:a5:36:26:8c:a4:3c:6a:7e:e4:7f:2b:33:7f:6c:05:
         3f:cc:23:4a:a5:aa:16:b0:21:a7:f9:b5:ba:8e:4d:9a:bf:84:
         61:40:78:93
-----BEGIN CERTIFICATE-----
MIIDNjCCAh6gAwIBAgIBETANBgkqhkiG9w0BAQsFADATMREwDwYDVQQDDAhDaGFu
Z2VNZTAeFw0xNjAzMDYxNzAxNDhaFw0yNjAzMDQxNzAxNDhaMBMxETAPBgNVBAMM
CGYzNDU0ZDRlMIIBIjANBgkqhkiG9w0BAQEFAAOCAQ8AMIIBCgKCAQEAvo9KvAz7
BFu3ouuoc3MO7O+kXa2ZQB2D6L4myEZAC/qOV1WjJ8G9VRRHXkaH8nqsD/lXPgdO
RwvMKaQoZN1nnvaTQE/d+ffOd73SYhsepB1Slof/AhatDCXLRZK5iNzWs2DwMfzs
fzJDhbydjxWOPM61AW7rj7c6X6L9nK4/tkJHW/l2hyEdD198MB0Sd/eXvC8FOrn7
I+s4SkT4vRhn60HQzqG7vs0wj/21XrtmPpy2AD+JyGqKRAKUZ8OJ7a1iNcbAwSBD
CSOkGGasQWVnpC2znD38eWYUIII3mnURVcTN3l+df8t+96SgEexUb604hyovqlC3
J+M+qp0BibuJSwIDAQABo4GUMIGRMAkGA1UdEwQCMAAwHQYDVR0OBBYEFKbuhfYF
Ed2Xw+4bjJHUSA3uDOLZMEMGA1UdIwQ8MDqAFDAwR198bfK7tsD8MiQgM5Q3NXCn
oRekFTATMREwDwYDVQQDDAhDaGFuZ2VNZYIJAPKQ9LM1+4SSMBMGA1UdJQQMMAoG
CCsGAQUFBwMCMAsGA1UdDwQEAwIHgDANBgkqhkiG9w0BAQsFAAOCAQEALZTpyYTH
3SbtT3FvrDbEu4NiV70GYgIhMxkO30Y+hFwSrcOl7LvPaFscnlh+xmNB56QHgC70
h2KoXfOwZp3a5u5xhXBF5WVOd5B3b9viJPJT9vTMcgkMX+xbGsuxWIASlHoin3gA
DPInPSyNHEsCM7NwEWe83g5sXKJbaqnupuFqlr6vGaJs18NjCUmE9s78/OMm05QR
vISlB/sDIBLf7fAN9PO9FLxJh6yOKulW1nYAhfcJc4WXgY565l17+FhiErONhsRZ
5590oMP3kPBDq42MU7vhKk3aQlPQpTYmjKQ8an7kfyszf2wFP8wjSqWqFrAhp/m1
uo5Nmr+EYUB4kw==
-----END CERTIFICATE-----
