Certificate:
    Data:
        Version: 3 (0x2)
        Serial Number: 18 (0x12)
    Signature Algorithm: sha256WithRSAEncryption
        Issuer: CN=ChangeMe
        Validity
            Not Before: Mar  6 17:20:02 2016 GMT
            Not After : Mar  4 17:20:02 2026 GMT
        Subject: CN=ac84a048
        Subject Public Key Info:
            Public Key Algorithm: rsaEncryption
                Public-Key: (2048 bit)
                Modulus:
                    00:b4:5a:8c:db:b9:f8:82:3f:ec:ba:0a:23:20:d2:
                    e4:66:0a:5d:91:47:be:92:08:a1:16:68:66:09:a8:
                    2b:8c:e6:3d:3b:74:e0:a4:92:f7:1b:82:a3:a8:8f:
                    d9:41:22:d4:b0:6a:eb:62:d9:56:66:29:04:83:78:
                    9c:3c:e4:19:0a:19:36:4d:cc:b0:14:d4:8b:63:49:
                    c0:f5:ea:aa:77:13:1c:fb:16:d8:64:b7:17:87:b4:
                    cd:de:ea:d3:62:c3:80:44:95:82:10:28:b2:16:70:
                    13:44:18:ab:91:a3:f1:ac:1a:c4:27:21:b1:b2:db:
                    c9:24:5e:58:32:c5:6b:a4:71:33:ed:ee:05:23:6c:
                    f9:ea:74:19:04:3d:6b:a3:51:2f:ee:76:07:72:ea:
                    20:cd:7f:4d:7b:ef:c2:fd:8d:15:51:0f:80:7e:dc:
                    a3:0d:38:a2:97:8b:b1:22:86:f0:a0:51:1f:5c:c2:
                    a9:56:5f:ec:55:7d:2a:5d:80:80:12:79:f5:f5:27:
                    04:3e:9b:0b:7a:b7:b5:11:4c:8a:97:ef:4a:91:41:
                    01:87:7a:44:04:04:af:47:ff:32:e5:a5:a0:8e:a5:
                    d0:c8:1a:4e:89:35:eb:bc:a6:db:96:91:29:0d:40:
                    7e:6e:8e:de:0a:25:0d:7d:b7:44:8c:5d:5e:05:3d:
                    bc:91
                Exponent: 65537 (0x10001)
        X509v3 extensions:
            X509v3 Basic Constraints: 
                CA:FALSE
            X509v3 Subject Key Identifier: 
                6F:61:8E:2B:D5:56:9D:DD:95:93:34:81:F6:99:8B:3D:BD:AF:0C:8C
            X509v3 Authority Key Identifier: 
                keyid:30:30:47:5F:7C:6D:F2:BB:B6:C0:FC:32:24:20:33:94:37:35:70:A7
                DirName:/CN=ChangeMe
                serial:F2:90:F4:B3:35:FB:84:92

            X509v3 Extended Key Usage: 
                TLS Web Client Authentication
            X509v3 Key Usage: 
                Digital Signature
    Signature Algorithm: sha256WithRSAEncryption
         c4:08:0d:8c:1c:c9:c5:e2:58:16:23:24:67:23:87:7b:0d:86:
         e7:2d:a6:a8:3c:53:bd:13:16:27:4d:a1:92:b6:a2:4b:db:8e:
         de:9d:65:5e:bd:1d:4f:7f:3f:12:76:c0:7d:08:0f:19:07:ec:
         08:fc:f3:9f:30:67:85:80:7f:01:ad:f7:3f:e8:7e:38:19:55:
         ab:e4:84:db:13:af:32:2b:81:34:08:ad:37:d5:73:1b:d1:a5:
         ae:83:3f:ed:f0:20:be:eb:d1:25:2b:af:41:9e:1b:24:2c:c7:
         b2:9e:15:f2:68:90:65:86:56:fd:e2:9e:25:94:e9:b8:27:7e:
         54:32:ce:ca:d9:89:ec:92:3f:e9:33:e1:9c:91:4c:04:b8:fa:
         a5:0b:c2:20:1a:67:d9:f3:5f:de:5e:f2:39:cc:f7:43:2e:cc:
         9d:81:a1:84:a3:3b:47:f2:4c:5a:cb:9a:14:84:e1:bf:84:6d:
         a1:cb:f3:b2:a4:32:14:22:10:34:66:da:9c:40:03:90:f7:32:
         6a:b6:0d:db:be:94:6c:f0:ac:13:0e:33:d1:28:30:68:dd:45:
         ca:a5:9f:95:d3:39:47:20:c9:f6:5b:3b:1b:a4:dc:56:10:05:
         86:24:2c:26:7b:9e:f2:91:74:7a:6f:de:16:4b:b1:58:6e:a8:
         e5:06:e0:14
-----BEGIN CERTIFICATE-----
MIIDNjCCAh6gAwIBAgIBEjANBgkqhkiG9w0BAQsFADATMREwDwYDVQQDDAhDaGFu
Z2VNZTAeFw0xNjAzMDYxNzIwMDJaFw0yNjAzMDQxNzIwMDJaMBMxETAPBgNVBAMM
CGFjODRhMDQ4MIIBIjANBgkqhkiG9w0BAQEFAAOCAQ8AMIIBCgKCAQEAtFqM27n4
gj/sugojINLkZgpdkUe+kgihFmhmCagrjOY9O3TgpJL3G4KjqI/ZQSLUsGrrYtlW
ZikEg3icPOQZChk2TcywFNSLY0nA9eqqdxMc+xbYZLcXh7TN3urTYsOARJWCECiy
FnATRBirkaPxrBrEJyGxstvJJF5YMsVrpHEz7e4FI2z56nQZBD1ro1Ev7nYHcuog
zX9Ne+/C/Y0VUQ+AftyjDTiil4uxIobwoFEfXMKpVl/sVX0qXYCAEnn19ScEPpsL
ere1EUyKl+9KkUEBh3pEBASvR/8y5aWgjqXQyBpOiTXrvKbblpEpDUB+bo7eCiUN
fbdEjF1eBT28kQIDAQABo4GUMIGRMAkGA1UdEwQCMAAwHQYDVR0OBBYEFG9hjivV
Vp3dlZM0gfaZiz29rwyMMEMGA1UdIwQ8MDqAFDAwR198bfK7tsD8MiQgM5Q3NXCn
oRekFTATMREwDwYDVQQDDAhDaGFuZ2VNZYIJAPKQ9LM1+4SSMBMGA1UdJQQMMAoG
CCsGAQUFBwMCMAsGA1UdDwQEAwIHgDANBgkqhkiG9w0BAQsFAAOCAQEAxAgNjBzJ
xeJYFiMkZyOHew2G5y2mqDxTvRMWJ02hkraiS9uO3p1lXr0dT38/EnbAfQgPGQfs
CPzznzBnhYB/Aa33P+h+OBlVq+SE2xOvMiuBNAitN9VzG9GlroM/7fAgvuvRJSuv
QZ4bJCzHsp4V8miQZYZW/eKeJZTpuCd+VDLOytmJ7JI/6TPhnJFMBLj6pQvCIBpn
2fNf3l7yOcz3Qy7MnYGhhKM7R/JMWsuaFIThv4RtocvzsqQyFCIQNGbanEADkPcy
arYN276UbPCsEw4z0SgwaN1FyqWfldM5RyDJ9ls7G6TcVhAFhiQsJnue8pF0em/e
FkuxWG6o5QbgFA==
-----END CERTIFICATE-----
