Certificate:
    Data:
        Version: 3 (0x2)
        Serial Number: 19 (0x13)
    Signature Algorithm: sha256WithRSAEncryption
        Issuer: CN=ChangeMe
        Validity
            Not Before: Mar 16 18:43:38 2016 GMT
            Not After : Mar 14 18:43:38 2026 GMT
        Subject: CN=f5f13b32
        Subject Public Key Info:
            Public Key Algorithm: rsaEncryption
                Public-Key: (2048 bit)
                Modulus:
                    00:d9:d9:3c:df:58:28:2e:ac:97:83:5d:bb:66:a9:
                    cb:57:f1:31:23:9c:41:8a:1f:5a:df:52:f0:08:b2:
                    93:6b:98:bb:ac:3b:0b:1d:ea:eb:d7:27:d2:8c:4a:
                    2a:47:25:9e:ac:91:d4:8b:1a:8f:80:d7:a2:03:fb:
                    e6:c9:53:69:a2:8b:8e:6c:7d:44:3d:93:f3:fa:5d:
                    95:ad:0f:a5:1e:ab:2c:bb:e0:ee:c1:46:6f:02:57:
                    10:4d:22:0a:b3:c5:44:f4:ec:6e:1d:f0:de:18:a1:
                    3e:33:bf:89:39:3e:ba:72:ac:8e:49:28:28:17:5b:
                    1d:cd:96:32:69:ff:fe:97:a4:fb:39:5f:86:e8:2e:
                    24:f6:2c:a2:83:d9:34:e2:e2:81:13:7d:e7:2b:0f:
                    c4:be:97:62:86:d8:89:22:1e:05:bb:d1:b1:bc:f1:
                    4c:44:32:64:7b:db:65:2f:1c:e3:28:30:92:ed:ba:
                    45:de:74:92:74:d7:c6:44:73:48:31:5d:38:57:76:
                    87:22:81:fd:72:8a:33:66:a5:f5:73:96:24:a9:2b:
                    e2:4e:7e:86:fa:e5:b8:42:42:4c:8c:db:e5:b4:d7:
                    b8:dc:60:4d:ec:57:cb:41:8e:82:bb:db:d3:2b:b0:
                    d3:2e:4a:3f:41:7e:28:b4:f3:84:ae:87:ef:e2:6e:
                    87:5f
                Exponent: 65537 (0x10001)
        X509v3 extensions:
            X509v3 Basic Constraints: 
                CA:FALSE
            X509v3 Subject Key Identifier: 
                D1:CB:EC:09:5E:29:F1:7D:CF:11:3F:9E:F2:CE:B9:51:41:B5:24:5F
            X509v3 Authority Key Identifier: 
                keyid:30:30:47:5F:7C:6D:F2:BB:B6:C0:FC:32:24:20:33:94:37:35:70:A7
                DirName:/CN=ChangeMe
                serial:F2:90:F4:B3:35:FB:84:92

            X509v3 Extended Key Usage: 
                TLS Web Client Authentication
            X509v3 Key Usage: 
                Digital Signature
    Signature Algorithm: sha256WithRSAEncryption
         0a:29:dc:7f:c9:15:be:5d:86:90:35:08:fb:ab:45:d0:ed:40:
         a8:3c:2c:f1:e6:c1:e6:ad:41:1c:50:65:c6:dc:b9:17:f6:a5:
         d1:68:5a:59:88:50:cc:72:fc:2b:38:2d:fd:4e:b1:1e:51:96:
         a1:03:82:63:b7:87:e2:b4:70:be:8d:86:91:e5:11:dc:a3:68:
         ba:71:43:a2:f1:89:28:59:66:74:d2:b0:19:5d:d7:1d:a4:ae:
         0f:fe:2f:0a:a9:71:f1:fb:70:fb:75:e2:f5:91:11:2e:ce:23:
         61:36:8f:a1:ce:5e:bc:34:b6:26:da:75:c1:04:75:16:07:e3:
         c1:96:66:69:ac:b8:9d:b7:ad:ca:4e:97:ab:35:ec:65:ad:78:
         7d:e8:f7:bb:3c:8e:c6:b6:ca:0b:89:94:87:94:32:df:3d:9a:
         4d:50:7e:bd:0a:41:6d:26:55:ad:a5:d5:d3:a5:d3:43:66:7d:
         49:95:36:0f:59:34:b9:4e:f0:1e:0a:29:fd:7a:41:f3:89:43:
         58:e8:93:f7:68:05:81:ff:fb:08:d1:3e:15:2c:fc:03:9f:f6:
         c7:f1:42:81:b4:77:06:58:36:11:c7:ff:c8:b8:76:f2:5e:b9:
         57:92:9a:2f:36:b7:52:35:db:9e:ec:72:d2:f2:73:ec:ac:2c:
         41:0f:ff:2d
-----BEGIN CERTIFICATE-----
MIIDNjCCAh6gAwIBAgIBEzANBgkqhkiG9w0BAQsFADATMREwDwYDVQQDDAhDaGFu
Z2VNZTAeFw0xNjAzMTYxODQzMzhaFw0yNjAzMTQxODQzMzhaMBMxETAPBgNVBAMM
CGY1ZjEzYjMyMIIBIjANBgkqhkiG9w0BAQEFAAOCAQ8AMIIBCgKCAQEA2dk831go
LqyXg127ZqnLV/ExI5xBih9a31LwCLKTa5i7rDsLHerr1yfSjEoqRyWerJHUixqP
gNeiA/vmyVNpoouObH1EPZPz+l2VrQ+lHqssu+DuwUZvAlcQTSIKs8VE9OxuHfDe
GKE+M7+JOT66cqyOSSgoF1sdzZYyaf/+l6T7OV+G6C4k9iyig9k04uKBE33nKw/E
vpdihtiJIh4Fu9GxvPFMRDJke9tlLxzjKDCS7bpF3nSSdNfGRHNIMV04V3aHIoH9
coozZqX1c5YkqSviTn6G+uW4QkJMjNvltNe43GBN7FfLQY6Cu9vTK7DTLko/QX4o
tPOErofv4m6HXwIDAQABo4GUMIGRMAkGA1UdEwQCMAAwHQYDVR0OBBYEFNHL7Ale
KfF9zxE/nvLOuVFBtSRfMEMGA1UdIwQ8MDqAFDAwR198bfK7tsD8MiQgM5Q3NXCn
oRekFTATMREwDwYDVQQDDAhDaGFuZ2VNZYIJAPKQ9LM1+4SSMBMGA1UdJQQMMAoG
CCsGAQUFBwMCMAsGA1UdDwQEAwIHgDANBgkqhkiG9w0BAQsFAAOCAQEACincf8kV
vl2GkDUI+6tF0O1AqDws8ebB5q1BHFBlxty5F/al0WhaWYhQzHL8Kzgt/U6xHlGW
oQOCY7eH4rRwvo2GkeUR3KNounFDovGJKFlmdNKwGV3XHaSuD/4vCqlx8ftw+3Xi
9ZERLs4jYTaPoc5evDS2Jtp1wQR1FgfjwZZmaay4nbetyk6XqzXsZa14fej3uzyO
xrbKC4mUh5Qy3z2aTVB+vQpBbSZVraXV06XTQ2Z9SZU2D1k0uU7wHgop/XpB84lD
WOiT92gFgf/7CNE+FSz8A5/2x/FCgbR3Blg2Ecf/yLh28l65V5KaLza3UjXbnuxy
0vJz7KwsQQ//LQ==
-----END CERTIFICATE-----
