Certificate:
    Data:
        Version: 3 (0x2)
        Serial Number: 20 (0x14)
    Signature Algorithm: sha256WithRSAEncryption
        Issuer: CN=ChangeMe
        Validity
            Not Before: Mar 17 14:49:02 2016 GMT
            Not After : Mar 15 14:49:02 2026 GMT
        Subject: CN=02b008d4
        Subject Public Key Info:
            Public Key Algorithm: rsaEncryption
                Public-Key: (2048 bit)
                Modulus:
                    00:c2:34:6c:40:2a:3e:69:8c:35:2d:51:25:23:60:
                    d8:05:50:21:ea:90:0f:95:ec:a0:06:6b:29:55:4b:
                    a3:e0:e1:91:1f:a4:45:af:72:05:0a:12:94:1c:4b:
                    ad:54:a1:88:6c:64:6f:fa:b4:89:59:a6:05:63:57:
                    69:c1:ad:b3:fa:ac:5b:6f:03:c3:57:04:a3:03:72:
                    0e:a8:77:2b:60:db:92:02:45:df:cd:0f:76:d5:08:
                    e6:2f:d9:52:6c:91:d8:9c:7f:d2:60:0e:5c:a2:40:
                    79:f1:01:bc:29:e7:12:80:1c:98:33:12:48:ea:e7:
                    85:8d:f6:61:cb:e6:0b:3f:91:11:5f:06:73:e1:6e:
                    d1:5c:f0:60:fb:45:76:02:13:23:94:7d:62:0f:69:
                    b4:e5:84:6f:91:65:3b:fb:10:0e:16:40:ec:c5:1e:
                    6d:81:75:81:43:1b:bf:ad:5c:34:e2:27:d7:11:7e:
                    89:c3:3a:43:a5:9e:8d:a6:14:24:ca:08:c4:a5:69:
                    4f:3d:c5:4d:e6:71:ec:df:9c:4b:a6:38:b4:f4:00:
                    a4:77:7c:2b:97:c4:fa:65:4d:b8:54:7b:29:ff:a5:
                    d8:7a:1e:b0:f5:72:a5:4a:f4:19:f5:16:f0:d8:34:
                    bd:65:1b:60:c7:82:dc:90:8d:c3:f1:48:c5:d7:5e:
                    1d:eb
                Exponent: 65537 (0x10001)
        X509v3 extensions:
            X509v3 Basic Constraints: 
                CA:FALSE
            X509v3 Subject Key Identifier: 
                D5:A8:A4:01:42:82:D3:47:9E:E3:C2:96:B1:9C:67:75:54:5B:44:CE
            X509v3 Authority Key Identifier: 
                keyid:30:30:47:5F:7C:6D:F2:BB:B6:C0:FC:32:24:20:33:94:37:35:70:A7
                DirName:/CN=ChangeMe
                serial:F2:90:F4:B3:35:FB:84:92

            X509v3 Extended Key Usage: 
                TLS Web Client Authentication
            X509v3 Key Usage: 
                Digital Signature
    Signature Algorithm: sha256WithRSAEncryption
         bb:3f:48:60:42:cb:6e:df:2c:dd:3f:84:4f:77:c0:58:e5:d5:
         26:ce:e2:00:68:b6:89:b3:63:ca:ac:d2:df:0f:ee:dc:dc:a5:
         93:5f:ea:b2:99:df:a8:c4:eb:87:88:47:23:59:5f:77:85:fc:
         3f:6a:ec:23:19:cf:bc:ee:9e:61:c1:aa:10:e8:83:1f:13:3d:
         30:a3:e9:08:e7:be:4f:7e:a6:f9:1f:f8:4b:88:9a:e9:35:55:
         3e:a0:bb:4c:27:7a:39:ff:81:63:1f:1e:cb:9a:b0:a7:e5:65:
         7b:ca:47:2f:02:01:1f:97:b9:24:16:f7:02:b8:a7:e9:a4:96:
         67:62:54:49:24:91:ac:60:e5:c9:2d:1d:56:f9:af:14:d3:a7:
         f1:d2:4d:63:63:ad:cf:d6:a2:ad:57:c4:c5:d2:aa:e9:21:8b:
         98:26:8e:f0:6c:61:75:6c:1d:94:ad:43:df:38:2b:9b:ef:61:
         9e:8a:3e:01:0d:be:5f:1b:ad:59:82:59:bd:ba:c7:29:51:40:
         4c:de:b7:a6:7f:02:7d:1c:49:52:0f:cc:bb:e2:86:6b:5b:2f:
         e8:c0:85:be:9d:40:67:6a:07:b9:08:0a:87:46:11:e7:c4:f9:
         45:fd:e0:f6:d3:b7:4f:42:04:3f:d8:2a:a5:5d:4a:bf:e2:2c:
         f1:24:f3:ff
-----BEGIN CERTIFICATE-----
MIIDNjCCAh6gAwIBAgIBFDANBgkqhkiG9w0BAQsFADATMREwDwYDVQQDDAhDaGFu
Z2VNZTAeFw0xNjAzMTcxNDQ5MDJaFw0yNjAzMTUxNDQ5MDJaMBMxETAPBgNVBAMM
CDAyYjAwOGQ0MIIBIjANBgkqhkiG9w0BAQEFAAOCAQ8AMIIBCgKCAQEAwjRsQCo+
aYw1LVElI2DYBVAh6pAPleygBmspVUuj4OGRH6RFr3IFChKUHEutVKGIbGRv+rSJ
WaYFY1dpwa2z+qxbbwPDVwSjA3IOqHcrYNuSAkXfzQ921QjmL9lSbJHYnH/SYA5c
okB58QG8KecSgByYMxJI6ueFjfZhy+YLP5ERXwZz4W7RXPBg+0V2AhMjlH1iD2m0
5YRvkWU7+xAOFkDsxR5tgXWBQxu/rVw04ifXEX6JwzpDpZ6NphQkygjEpWlPPcVN
5nHs35xLpji09ACkd3wrl8T6ZU24VHsp/6XYeh6w9XKlSvQZ9Rbw2DS9ZRtgx4Lc
kI3D8UjF114d6wIDAQABo4GUMIGRMAkGA1UdEwQCMAAwHQYDVR0OBBYEFNWopAFC
gtNHnuPClrGcZ3VUW0TOMEMGA1UdIwQ8MDqAFDAwR198bfK7tsD8MiQgM5Q3NXCn
oRekFTATMREwDwYDVQQDDAhDaGFuZ2VNZYIJAPKQ9LM1+4SSMBMGA1UdJQQMMAoG
CCsGAQUFBwMCMAsGA1UdDwQEAwIHgDANBgkqhkiG9w0BAQsFAAOCAQEAuz9IYELL
bt8s3T+ET3fAWOXVJs7iAGi2ibNjyqzS3w/u3Nylk1/qspnfqMTrh4hHI1lfd4X8
P2rsIxnPvO6eYcGqEOiDHxM9MKPpCOe+T36m+R/4S4ia6TVVPqC7TCd6Of+BYx8e
y5qwp+Vle8pHLwIBH5e5JBb3Arin6aSWZ2JUSSSRrGDlyS0dVvmvFNOn8dJNY2Ot
z9airVfExdKq6SGLmCaO8GxhdWwdlK1D3zgrm+9hnoo+AQ2+XxutWYJZvbrHKVFA
TN63pn8CfRxJUg/Mu+KGa1sv6MCFvp1AZ2oHuQgKh0YR58T5Rf3g9tO3T0IEP9gq
pV1Kv+Is8STz/w==
-----END CERTIFICATE-----
