Certificate:
    Data:
        Version: 3 (0x2)
        Serial Number: 21 (0x15)
    Signature Algorithm: sha256WithRSAEncryption
        Issuer: CN=ChangeMe
        Validity
            Not Before: Mar 26 14:47:16 2016 GMT
            Not After : Mar 24 14:47:16 2026 GMT
        Subject: CN=aa7891f8
        Subject Public Key Info:
            Public Key Algorithm: rsaEncryption
                Public-Key: (2048 bit)
                Modulus:
                    00:c1:99:ee:ef:d4:28:5e:29:95:8e:2a:75:c3:ae:
                    4a:37:d4:db:6d:64:4d:d9:d1:c8:bd:7f:f5:a1:4f:
                    a5:29:b8:e0:ae:dc:12:28:78:3d:1f:c9:66:15:b7:
                    0e:8a:5a:98:66:da:92:b6:20:f9:fc:fe:f3:c4:46:
                    a1:08:26:a7:fb:82:68:71:22:db:e3:c9:ea:f5:64:
                    11:9a:35:b4:14:36:f8:a5:de:c4:43:2b:ca:ee:9b:
                    82:72:03:62:be:08:c3:96:bd:79:e8:4b:67:87:9b:
                    49:8e:29:02:28:d2:1d:d6:8a:44:b5:0b:4a:a3:b1:
                    55:ed:38:c0:9e:2b:9f:5b:e2:31:b0:8d:55:da:b9:
                    79:9b:8e:c9:a2:2d:cf:a9:e9:4d:fe:1f:c6:a6:d1:
                    28:89:33:fc:b9:09:f7:68:5d:c1:ee:e0:5d:43:0e:
                    31:d8:05:85:d7:f4:21:96:74:87:b3:d9:0b:c0:a8:
                    05:29:ef:38:32:38:1e:43:59:c0:14:84:6f:1e:85:
                    7b:77:b1:a8:4f:fc:b8:bd:0e:cb:23:55:30:f9:f4:
                    1e:d2:d7:f1:d8:4b:9f:d0:c1:e4:eb:5e:9c:79:8f:
                    e5:f6:69:b4:76:42:a8:c6:b7:d9:a1:d5:b3:b0:22:
                    c7:1c:c3:7d:4a:1e:59:74:7c:9c:38:a8:72:ad:b0:
                    68:9f
                Exponent: 65537 (0x10001)
        X509v3 extensions:
            X509v3 Basic Constraints: 
                CA:FALSE
            X509v3 Subject Key Identifier: 
                90:B9:62:85:CF:10:EB:97:E0:51:63:E4:71:94:0D:DF:F5:3C:09:3B
            X509v3 Authority Key Identifier: 
                keyid:30:30:47:5F:7C:6D:F2:BB:B6:C0:FC:32:24:20:33:94:37:35:70:A7
                DirName:/CN=ChangeMe
                serial:F2:90:F4:B3:35:FB:84:92

            X509v3 Extended Key Usage: 
                TLS Web Client Authentication
            X509v3 Key Usage: 
                Digital Signature
    Signature Algorithm: sha256WithRSAEncryption
         9e:c5:b3:6e:a8:79:71:59:4a:96:63:d2:a0:a7:95:db:e3:6b:
         15:ff:58:76:6c:1a:b2:a5:d0:be:54:a0:10:2a:e1:bc:7f:98:
         f5:73:2e:59:6f:9c:fb:b4:51:e5:8b:fb:0e:02:a4:72:f2:ae:
         e1:d2:1b:ee:35:90:4b:ab:24:bc:db:c1:50:12:63:92:6d:18:
         a3:6e:f7:3d:c3:ce:f8:e3:39:36:44:34:41:a9:d6:cf:c3:32:
         e0:6d:ae:1c:b3:d3:04:6e:47:90:46:b1:75:a5:6c:40:8d:3b:
         73:d7:f2:e1:de:45:ea:c8:4d:1d:fd:7b:ad:48:b6:d0:b2:79:
         ed:b8:5a:d0:26:08:b8:ae:29:80:81:8a:a2:0a:62:2a:32:b2:
         e6:0f:4e:09:6b:01:29:4a:17:20:5d:95:e2:45:a9:2f:cc:14:
         d8:71:e3:8a:50:2c:09:33:07:a4:d6:47:0f:15:7f:0c:f7:a0:
         81:14:07:fc:29:2c:e3:8b:6b:d5:bf:5f:40:42:f9:a7:59:64:
         ee:c2:32:15:ad:83:fb:9d:40:7f:a3:c4:e6:2f:14:f3:a4:67:
         db:87:a4:ef:4b:e1:cd:c4:86:31:d6:43:ad:84:98:c1:d2:78:
         40:ca:78:6e:ce:d1:d6:06:7f:0a:cf:19:91:49:21:f6:03:9d:
         ee:22:3d:ad
-----BEGIN CERTIFICATE-----
MIIDNjCCAh6gAwIBAgIBFTANBgkqhkiG9w0BAQsFADATMREwDwYDVQQDDAhDaGFu
Z2VNZTAeFw0xNjAzMjYxNDQ3MTZaFw0yNjAzMjQxNDQ3MTZaMBMxETAPBgNVBAMM
CGFhNzg5MWY4MIIBIjANBgkqhkiG9w0BAQEFAAOCAQ8AMIIBCgKCAQEAwZnu79Qo
XimVjip1w65KN9TbbWRN2dHIvX/1oU+lKbjgrtwSKHg9H8lmFbcOilqYZtqStiD5
/P7zxEahCCan+4JocSLb48nq9WQRmjW0FDb4pd7EQyvK7puCcgNivgjDlr156Etn
h5tJjikCKNId1opEtQtKo7FV7TjAniufW+IxsI1V2rl5m47Joi3PqelN/h/GptEo
iTP8uQn3aF3B7uBdQw4x2AWF1/QhlnSHs9kLwKgFKe84MjgeQ1nAFIRvHoV7d7Go
T/y4vQ7LI1Uw+fQe0tfx2Euf0MHk616ceY/l9mm0dkKoxrfZodWzsCLHHMN9Sh5Z
dHycOKhyrbBonwIDAQABo4GUMIGRMAkGA1UdEwQCMAAwHQYDVR0OBBYEFJC5YoXP
EOuX4FFj5HGUDd/1PAk7MEMGA1UdIwQ8MDqAFDAwR198bfK7tsD8MiQgM5Q3NXCn
oRekFTATMREwDwYDVQQDDAhDaGFuZ2VNZYIJAPKQ9LM1+4SSMBMGA1UdJQQMMAoG
CCsGAQUFBwMCMAsGA1UdDwQEAwIHgDANBgkqhkiG9w0BAQsFAAOCAQEAnsWzbqh5
cVlKlmPSoKeV2+NrFf9YdmwasqXQvlSgECrhvH+Y9XMuWW+c+7RR5Yv7DgKkcvKu
4dIb7jWQS6skvNvBUBJjkm0Yo273PcPO+OM5NkQ0QanWz8My4G2uHLPTBG5HkEax
daVsQI07c9fy4d5F6shNHf17rUi20LJ57bha0CYIuK4pgIGKogpiKjKy5g9OCWsB
KUoXIF2V4kWpL8wU2HHjilAsCTMHpNZHDxV/DPeggRQH/Cks44tr1b9fQEL5p1lk
7sIyFa2D+51Af6PE5i8U86Rn24ek70vhzcSGMdZDrYSYwdJ4QMp4bs7R1gZ/Cs8Z
kUkh9gOd7iI9rQ==
-----END CERTIFICATE-----
