Certificate:
    Data:
        Version: 3 (0x2)
        Serial Number: 22 (0x16)
    Signature Algorithm: sha256WithRSAEncryption
        Issuer: CN=ChangeMe
        Validity
            Not Before: Mar 27 14:36:35 2016 GMT
            Not After : Mar 25 14:36:35 2026 GMT
        Subject: CN=433de41b
        Subject Public Key Info:
            Public Key Algorithm: rsaEncryption
                Public-Key: (2048 bit)
                Modulus:
                    00:c3:83:6d:4a:4b:41:90:9e:d0:cb:a4:9f:10:9d:
                    88:ed:7f:4a:fb:51:ca:4b:38:18:fe:4a:fe:02:35:
                    e6:ed:30:7f:8e:98:11:7f:0c:a3:b5:ab:09:9c:1b:
                    b0:93:a0:cb:75:94:9e:39:f8:31:54:03:ba:48:88:
                    4c:04:54:76:5b:da:85:88:78:1a:6a:67:d7:08:0b:
                    98:21:74:14:10:c2:e0:c9:3d:d3:d8:d4:10:4c:4e:
                    dc:5e:24:ca:30:09:6d:f9:72:6b:1d:4a:5d:d3:78:
                    9b:ef:30:82:98:84:15:6c:37:ef:9b:9c:f4:d2:47:
                    1c:49:84:de:00:9b:62:91:d5:5b:3a:2c:50:4e:a3:
                    f3:b8:96:40:ed:3b:f9:ea:56:47:38:1d:9a:6c:35:
                    70:df:b7:67:e5:20:b0:b9:90:29:18:58:c4:eb:17:
                    89:a6:ae:3d:62:31:6d:16:ca:25:98:7c:3f:38:48:
                    94:7d:b1:3b:e9:48:db:a9:b3:17:75:27:19:9c:10:
                    66:4d:fc:43:7c:67:9d:29:e6:c2:1c:e6:50:b7:0d:
                    d9:e7:20:00:ca:15:23:49:f4:ea:65:79:80:2a:9c:
                    8b:f8:3c:52:db:e3:72:f1:6b:82:27:e0:75:0a:e0:
                    6a:f0:be:3e:ef:45:5b:7c:76:a1:db:c6:05:98:af:
                    a0:c1
                Exponent: 65537 (0x10001)
        X509v3 extensions:
            X509v3 Basic Constraints: 
                CA:FALSE
            X509v3 Subject Key Identifier: 
                FB:0D:13:BE:F1:9B:F8:4D:19:6C:9D:55:10:44:7A:E6:86:D7:3D:DB
            X509v3 Authority Key Identifier: 
                keyid:30:30:47:5F:7C:6D:F2:BB:B6:C0:FC:32:24:20:33:94:37:35:70:A7
                DirName:/CN=ChangeMe
                serial:F2:90:F4:B3:35:FB:84:92

            X509v3 Extended Key Usage: 
                TLS Web Client Authentication
            X509v3 Key Usage: 
                Digital Signature
    Signature Algorithm: sha256WithRSAEncryption
         1b:3e:c4:c3:8c:66:52:67:1b:b2:3c:29:8c:07:64:8b:6b:05:
         47:38:ff:86:be:2a:c7:1c:5a:85:7d:37:a5:3c:42:83:05:54:
         0d:9f:e6:ae:c9:55:07:39:ab:f8:13:40:6c:b7:f1:76:4f:75:
         d3:fe:0e:7a:b8:36:8d:93:6b:b6:8e:89:7d:89:71:e0:5d:0e:
         29:36:66:79:90:16:40:8a:8a:71:3f:9a:86:93:5d:55:51:c7:
         75:1a:e0:34:74:61:1a:40:05:d1:ad:97:89:7c:e4:bf:c3:3e:
         eb:ea:c4:50:2e:e8:d4:51:1d:03:e9:ce:34:2b:c2:eb:ee:6e:
         b7:12:bf:6b:f2:ae:5e:c2:ad:af:c4:9a:ed:23:1e:d6:ba:30:
         19:09:70:1c:cc:31:5b:a1:e9:75:2e:e7:36:f0:b5:c3:5b:5c:
         f5:46:0c:d8:2a:59:74:bc:2f:60:cf:32:37:d4:59:00:72:df:
         04:3f:f0:68:89:96:2d:aa:39:2f:f7:fb:41:ba:3b:33:0f:60:
         0e:5e:61:23:35:ca:4d:92:ff:65:b5:ac:21:a5:05:6a:51:58:
         f3:9d:75:2b:f5:dc:5b:66:0c:42:3b:10:74:79:73:81:ef:ae:
         a5:38:90:8c:ce:de:b0:2d:e0:3c:c1:e9:a0:c9:d9:cb:2d:64:
         1c:82:b3:0d
-----BEGIN CERTIFICATE-----
MIIDNjCCAh6gAwIBAgIBFjANBgkqhkiG9w0BAQsFADATMREwDwYDVQQDDAhDaGFu
Z2VNZTAeFw0xNjAzMjcxNDM2MzVaFw0yNjAzMjUxNDM2MzVaMBMxETAPBgNVBAMM
CDQzM2RlNDFiMIIBIjANBgkqhkiG9w0BAQEFAAOCAQ8AMIIBCgKCAQEAw4NtSktB
kJ7Qy6SfEJ2I7X9K+1HKSzgY/kr+AjXm7TB/jpgRfwyjtasJnBuwk6DLdZSeOfgx
VAO6SIhMBFR2W9qFiHgaamfXCAuYIXQUEMLgyT3T2NQQTE7cXiTKMAlt+XJrHUpd
03ib7zCCmIQVbDfvm5z00kccSYTeAJtikdVbOixQTqPzuJZA7Tv56lZHOB2abDVw
37dn5SCwuZApGFjE6xeJpq49YjFtFsolmHw/OEiUfbE76UjbqbMXdScZnBBmTfxD
fGedKebCHOZQtw3Z5yAAyhUjSfTqZXmAKpyL+DxS2+Ny8WuCJ+B1CuBq8L4+70Vb
fHah28YFmK+gwQIDAQABo4GUMIGRMAkGA1UdEwQCMAAwHQYDVR0OBBYEFPsNE77x
m/hNGWydVRBEeuaG1z3bMEMGA1UdIwQ8MDqAFDAwR198bfK7tsD8MiQgM5Q3NXCn
oRekFTATMREwDwYDVQQDDAhDaGFuZ2VNZYIJAPKQ9LM1+4SSMBMGA1UdJQQMMAoG
CCsGAQUFBwMCMAsGA1UdDwQEAwIHgDANBgkqhkiG9w0BAQsFAAOCAQEAGz7Ew4xm
UmcbsjwpjAdki2sFRzj/hr4qxxxahX03pTxCgwVUDZ/mrslVBzmr+BNAbLfxdk91
0/4Oerg2jZNrto6JfYlx4F0OKTZmeZAWQIqKcT+ahpNdVVHHdRrgNHRhGkAF0a2X
iXzkv8M+6+rEUC7o1FEdA+nONCvC6+5utxK/a/KuXsKtr8Sa7SMe1rowGQlwHMwx
W6HpdS7nNvC1w1tc9UYM2CpZdLwvYM8yN9RZAHLfBD/waImWLao5L/f7Qbo7Mw9g
Dl5hIzXKTZL/ZbWsIaUFalFY8511K/XcW2YMQjsQdHlzge+upTiQjM7esC3gPMHp
oMnZyy1kHIKzDQ==
-----END CERTIFICATE-----
