Certificate:
    Data:
        Version: 3 (0x2)
        Serial Number: 23 (0x17)
    Signature Algorithm: sha256WithRSAEncryption
        Issuer: CN=ChangeMe
        Validity
            Not Before: Apr  3 10:23:12 2016 GMT
            Not After : Apr  1 10:23:12 2026 GMT
        Subject: CN=78275f3c
        Subject Public Key Info:
            Public Key Algorithm: rsaEncryption
                Public-Key: (2048 bit)
                Modulus:
                    00:c2:88:43:2b:5f:83:b5:e8:84:19:1c:cb:d4:20:
                    4c:8d:ac:50:8a:c8:24:13:54:84:d6:fb:c3:1b:ff:
                    47:1f:9d:19:a5:62:2e:db:26:d9:39:70:4c:4a:b3:
                    51:86:3b:71:75:86:0f:a8:6e:a5:05:13:a6:58:ae:
                    71:97:5d:ca:ec:c5:5f:55:95:12:a3:71:c4:40:09:
                    40:47:47:3e:ff:38:22:14:0e:d4:66:d6:c6:e5:85:
                    0b:96:19:90:09:0e:2d:85:64:63:cd:fd:11:d7:1e:
                    97:48:c1:1e:75:93:4a:a7:8a:05:e3:ef:23:c9:48:
                    36:4b:5e:58:88:e2:9a:c7:4a:22:2e:78:ab:e0:61:
                    23:c5:51:37:aa:46:79:61:65:e8:ea:6b:68:f5:b0:
                    73:31:88:1e:7d:47:35:99:e8:9a:df:07:c8:9d:5b:
                    9e:cb:9c:d9:f1:df:72:bd:22:3f:15:af:80:1c:b0:
                    f2:cf:fc:88:d0:db:00:1e:71:c1:1a:bd:cd:c2:d9:
                    4f:9e:29:a5:24:64:a5:9f:61:45:60:08:22:4b:62:
                    e1:cc:03:86:f1:f0:bf:9e:33:97:18:bc:14:a6:ca:
                    6a:73:fb:94:b0:e6:f5:64:85:fd:bc:c2:c5:00:ea:
                    64:59:9e:a7:ac:29:f1:db:c6:8f:e6:df:81:c0:52:
                    d5:dd
                Exponent: 65537 (0x10001)
        X509v3 extensions:
            X509v3 Basic Constraints: 
                CA:FALSE
            X509v3 Subject Key Identifier: 
                16:EC:AB:76:77:4C:24:46:E8:91:0F:F9:A0:A8:98:D8:5B:4C:E1:0F
            X509v3 Authority Key Identifier: 
                keyid:30:30:47:5F:7C:6D:F2:BB:B6:C0:FC:32:24:20:33:94:37:35:70:A7
                DirName:/CN=ChangeMe
                serial:F2:90:F4:B3:35:FB:84:92

            X509v3 Extended Key Usage: 
                TLS Web Client Authentication
            X509v3 Key Usage: 
                Digital Signature
    Signature Algorithm: sha256WithRSAEncryption
         bb:19:f3:36:29:f7:9b:80:21:9c:b9:8f:5e:9b:45:6b:4b:62:
         10:9f:5f:ff:7c:6f:c7:23:d2:70:f7:1a:57:f6:69:71:d2:1e:
         50:79:a6:bf:bb:21:54:0e:7e:c9:6b:1e:8b:e6:56:b2:c8:dd:
         ba:74:d5:6b:3c:57:45:f0:a2:86:b5:ce:a1:5b:e5:d4:72:2d:
         2b:c2:4b:fb:91:92:cc:39:5c:13:d1:ec:0a:d4:1f:4a:87:ba:
         a2:75:98:6b:e5:5c:24:6d:19:a7:f2:4e:f5:92:3f:c0:d4:8b:
         31:76:61:45:a8:9c:eb:9f:1e:06:2f:6d:0d:55:2a:d9:c1:9e:
         88:fd:bd:85:78:ab:41:03:b0:2a:6d:5a:af:b7:d1:b3:73:2e:
         d9:c2:cb:d3:09:ee:77:9a:ca:ea:9b:f5:28:89:8e:6a:9e:b9:
         b9:a1:36:33:fc:22:4c:93:aa:68:56:33:a1:3b:9d:0f:58:9c:
         9a:fb:10:63:6e:a2:8b:6e:49:36:1f:6c:d2:96:68:07:c7:1d:
         3c:56:28:cc:c2:b2:84:2f:ae:be:21:b9:90:23:53:88:3b:9f:
         b2:be:b6:d3:cb:a9:92:d3:d4:ab:2b:ea:9e:a3:25:ec:12:4d:
         59:fd:b2:31:0b:eb:79:ab:5c:e5:ec:54:bc:01:d9:f4:66:66:
         eb:09:8a:79
-----BEGIN CERTIFICATE-----
MIIDNjCCAh6gAwIBAgIBFzANBgkqhkiG9w0BAQsFADATMREwDwYDVQQDDAhDaGFu
Z2VNZTAeFw0xNjA0MDMxMDIzMTJaFw0yNjA0MDExMDIzMTJaMBMxETAPBgNVBAMM
CDc4Mjc1ZjNjMIIBIjANBgkqhkiG9w0BAQEFAAOCAQ8AMIIBCgKCAQEAwohDK1+D
teiEGRzL1CBMjaxQisgkE1SE1vvDG/9HH50ZpWIu2ybZOXBMSrNRhjtxdYYPqG6l
BROmWK5xl13K7MVfVZUSo3HEQAlAR0c+/zgiFA7UZtbG5YULlhmQCQ4thWRjzf0R
1x6XSMEedZNKp4oF4+8jyUg2S15YiOKax0oiLnir4GEjxVE3qkZ5YWXo6mto9bBz
MYgefUc1meia3wfInVuey5zZ8d9yvSI/Fa+AHLDyz/yI0NsAHnHBGr3NwtlPniml
JGSln2FFYAgiS2LhzAOG8fC/njOXGLwUpspqc/uUsOb1ZIX9vMLFAOpkWZ6nrCnx
28aP5t+BwFLV3QIDAQABo4GUMIGRMAkGA1UdEwQCMAAwHQYDVR0OBBYEFBbsq3Z3
TCRG6JEP+aComNhbTOEPMEMGA1UdIwQ8MDqAFDAwR198bfK7tsD8MiQgM5Q3NXCn
oRekFTATMREwDwYDVQQDDAhDaGFuZ2VNZYIJAPKQ9LM1+4SSMBMGA1UdJQQMMAoG
CCsGAQUFBwMCMAsGA1UdDwQEAwIHgDANBgkqhkiG9w0BAQsFAAOCAQEAuxnzNin3
m4AhnLmPXptFa0tiEJ9f/3xvxyPScPcaV/ZpcdIeUHmmv7shVA5+yWsei+ZWssjd
unTVazxXRfCihrXOoVvl1HItK8JL+5GSzDlcE9HsCtQfSoe6onWYa+VcJG0Zp/JO
9ZI/wNSLMXZhRaic658eBi9tDVUq2cGeiP29hXirQQOwKm1ar7fRs3Mu2cLL0wnu
d5rK6pv1KImOap65uaE2M/wiTJOqaFYzoTudD1icmvsQY26ii25JNh9s0pZoB8cd
PFYozMKyhC+uviG5kCNTiDufsr6208upktPUqyvqnqMl7BJNWf2yMQvreatc5exU
vAHZ9GZm6wmKeQ==
-----END CERTIFICATE-----
