Certificate:
    Data:
        Version: 3 (0x2)
        Serial Number: 24 (0x18)
    Signature Algorithm: sha256WithRSAEncryption
        Issuer: CN=ChangeMe
        Validity
            Not Before: Apr  5 13:09:46 2016 GMT
            Not After : Apr  3 13:09:46 2026 GMT
        Subject: CN=9f51d236
        Subject Public Key Info:
            Public Key Algorithm: rsaEncryption
                Public-Key: (2048 bit)
                Modulus:
                    00:b6:9e:b5:7a:3c:eb:63:9c:7c:0f:b4:67:72:91:
                    f3:90:0c:a5:ec:3b:e0:87:45:2a:0c:5c:6d:8c:20:
                    11:92:ee:ce:90:4c:fc:60:41:88:ed:bb:ed:48:01:
                    d8:45:70:02:5f:0d:83:51:08:15:d1:59:9f:de:cc:
                    a0:90:a6:3f:f8:0f:fe:bc:71:d0:6f:8b:c2:cf:f6:
                    38:da:02:97:38:57:09:75:a2:73:d0:40:55:8a:5e:
                    45:d0:32:5c:9a:c6:df:01:59:f8:76:67:dd:c5:90:
                    08:ae:35:32:b9:61:c5:ae:85:67:5c:2c:d2:07:45:
                    9a:94:98:1d:0e:22:12:38:e4:2e:d1:7e:7e:88:19:
                    e7:cb:5e:af:40:d6:95:91:ff:82:40:42:8c:35:77:
                    4c:0e:3f:28:db:22:58:76:6b:64:01:25:24:9a:32:
                    01:e4:3f:97:84:ac:8f:2e:f6:7a:20:f1:ba:99:6a:
                    9e:19:c7:23:4c:b4:52:4c:0b:e7:86:ff:0c:b8:9b:
                    c4:f0:91:02:b7:67:69:4d:95:55:8a:37:6c:77:8d:
                    88:e2:2f:55:cd:31:e0:46:a3:75:04:da:7f:ec:2d:
                    42:44:6f:98:aa:ef:15:ab:8f:3c:d2:28:86:75:84:
                    12:2d:37:91:78:53:f4:52:ab:cc:6f:0a:8a:99:b1:
                    72:51
                Exponent: 65537 (0x10001)
        X509v3 extensions:
            X509v3 Basic Constraints: 
                CA:FALSE
            X509v3 Subject Key Identifier: 
                C8:30:25:A2:7B:1D:5D:A6:A8:12:0C:7F:1B:9F:3A:37:16:3C:72:4B
            X509v3 Authority Key Identifier: 
                keyid:30:30:47:5F:7C:6D:F2:BB:B6:C0:FC:32:24:20:33:94:37:35:70:A7
                DirName:/CN=ChangeMe
                serial:F2:90:F4:B3:35:FB:84:92

            X509v3 Extended Key Usage: 
                TLS Web Client Authentication
            X509v3 Key Usage: 
                Digital Signature
    Signature Algorithm: sha256WithRSAEncryption
         37:e2:79:ab:f7:b3:ab:05:ef:3e:b5:89:c0:d4:ac:26:71:1f:
         5f:19:81:c3:b0:e3:67:68:4f:66:78:fc:18:fb:25:c9:73:f3:
         97:1b:30:f7:d3:da:dc:1f:8c:d8:c2:fa:47:49:17:15:4b:12:
         d4:b6:ff:5a:6f:1d:7d:9d:44:93:67:c3:6a:85:1f:af:aa:3f:
         51:6a:29:41:1f:10:01:ea:e3:4f:84:a6:52:53:1a:36:f7:08:
         3d:5b:60:f0:41:c1:7b:08:85:ef:a6:f2:e8:7d:da:54:0e:d6:
         f0:65:8a:a9:86:12:9e:9a:c0:fe:3c:93:5b:dd:e5:d9:b7:82:
         c2:58:29:9b:ae:3b:05:c8:96:3a:2a:47:c2:67:48:6d:fe:91:
         f9:76:f7:29:eb:cf:19:bf:01:0c:c3:dd:49:15:a3:21:9f:cd:
         2c:bb:9a:02:c7:87:f4:52:e6:c4:cf:2c:ca:94:41:7e:3b:8e:
         26:36:fc:2c:72:14:58:2d:1e:e8:a2:63:f0:06:94:a2:92:02:
         04:ae:60:d5:88:a2:57:11:32:bf:27:9a:d5:92:e9:1b:d5:df:
         2e:dd:98:7f:e1:61:e9:9e:e5:41:f9:a3:88:c7:9b:0d:9f:2f:
         d2:9b:ea:ba:e2:21:db:7d:2e:90:ec:ed:b2:93:8d:83:9e:94:
         b2:96:fb:34
-----BEGIN CERTIFICATE-----
MIIDNjCCAh6gAwIBAgIBGDANBgkqhkiG9w0BAQsFADATMREwDwYDVQQDDAhDaGFu
Z2VNZTAeFw0xNjA0MDUxMzA5NDZaFw0yNjA0MDMxMzA5NDZaMBMxETAPBgNVBAMM
CDlmNTFkMjM2MIIBIjANBgkqhkiG9w0BAQEFAAOCAQ8AMIIBCgKCAQEAtp61ejzr
Y5x8D7RncpHzkAyl7Dvgh0UqDFxtjCARku7OkEz8YEGI7bvtSAHYRXACXw2DUQgV
0Vmf3sygkKY/+A/+vHHQb4vCz/Y42gKXOFcJdaJz0EBVil5F0DJcmsbfAVn4dmfd
xZAIrjUyuWHFroVnXCzSB0WalJgdDiISOOQu0X5+iBnny16vQNaVkf+CQEKMNXdM
Dj8o2yJYdmtkASUkmjIB5D+XhKyPLvZ6IPG6mWqeGccjTLRSTAvnhv8MuJvE8JEC
t2dpTZVVijdsd42I4i9VzTHgRqN1BNp/7C1CRG+Yqu8Vq4880iiGdYQSLTeReFP0
UqvMbwqKmbFyUQIDAQABo4GUMIGRMAkGA1UdEwQCMAAwHQYDVR0OBBYEFMgwJaJ7
HV2mqBIMfxufOjcWPHJLMEMGA1UdIwQ8MDqAFDAwR198bfK7tsD8MiQgM5Q3NXCn
oRekFTATMREwDwYDVQQDDAhDaGFuZ2VNZYIJAPKQ9LM1+4SSMBMGA1UdJQQMMAoG
CCsGAQUFBwMCMAsGA1UdDwQEAwIHgDANBgkqhkiG9w0BAQsFAAOCAQEAN+J5q/ez
qwXvPrWJwNSsJnEfXxmBw7DjZ2hPZnj8GPslyXPzlxsw99Pa3B+M2ML6R0kXFUsS
1Lb/Wm8dfZ1Ek2fDaoUfr6o/UWopQR8QAerjT4SmUlMaNvcIPVtg8EHBewiF76by
6H3aVA7W8GWKqYYSnprA/jyTW93l2beCwlgpm647BciWOipHwmdIbf6R+Xb3KevP
Gb8BDMPdSRWjIZ/NLLuaAseH9FLmxM8sypRBfjuOJjb8LHIUWC0e6KJj8AaUopIC
BK5g1YiiVxEyvyea1ZLpG9XfLt2Yf+Fh6Z7lQfmjiMebDZ8v0pvquuIh230ukOzt
spONg56Uspb7NA==
-----END CERTIFICATE-----
