Certificate:
    Data:
        Version: 3 (0x2)
        Serial Number: 25 (0x19)
    Signature Algorithm: sha256WithRSAEncryption
        Issuer: CN=ChangeMe
        Validity
            Not Before: Apr  5 15:14:22 2016 GMT
            Not After : Apr  3 15:14:22 2026 GMT
        Subject: CN=d385486a
        Subject Public Key Info:
            Public Key Algorithm: rsaEncryption
                Public-Key: (2048 bit)
                Modulus:
                    00:bc:80:83:54:6f:7e:68:c7:91:ab:b3:ae:5b:27:
                    20:60:91:c4:48:33:c4:d2:40:ef:c4:ad:28:a5:07:
                    8a:e5:ba:38:58:e2:37:b4:3b:92:ec:6d:44:16:53:
                    ab:b6:3f:2d:ad:cc:6a:7a:58:ff:cf:22:c6:a5:66:
                    35:75:97:45:a3:db:33:f2:a1:1a:e6:36:f0:7d:78:
                    ba:6e:d7:10:bb:82:46:9e:f5:2b:9f:77:82:46:2b:
                    e5:f8:0d:e0:4c:5f:e2:f7:e6:d4:70:bf:a1:16:9e:
                    90:a0:f9:fd:3f:1a:94:e3:c9:55:d7:e6:ee:88:53:
                    2a:db:bc:6b:df:8e:d7:b4:b2:aa:a4:73:b1:37:0c:
                    f8:96:18:1d:66:26:46:13:ba:f9:f0:7d:f1:0b:04:
                    3a:ec:d8:00:25:6c:71:6c:ac:06:8f:fc:26:bb:0a:
                    93:02:7d:1e:ef:fb:a0:3d:ee:f8:e5:12:30:c2:54:
                    82:9f:d5:6e:45:f9:7f:7a:f6:86:cc:9f:c5:0b:70:
                    d8:b1:86:00:46:f8:6f:cf:bf:be:d4:cf:ad:ac:26:
                    9c:99:85:dd:22:47:ad:93:3d:80:f5:4b:96:10:0a:
                    42:6f:49:de:65:ac:85:d9:b5:dc:58:1f:7e:45:42:
                    26:dc:b3:d4:42:fa:90:a4:04:61:a8:d1:70:58:d5:
                    af:55
                Exponent: 65537 (0x10001)
        X509v3 extensions:
            X509v3 Basic Constraints: 
                CA:FALSE
            X509v3 Subject Key Identifier: 
                1F:2B:F6:6B:6E:43:13:32:84:46:ED:C0:80:95:83:02:CD:18:78:CF
            X509v3 Authority Key Identifier: 
                keyid:30:30:47:5F:7C:6D:F2:BB:B6:C0:FC:32:24:20:33:94:37:35:70:A7
                DirName:/CN=ChangeMe
                serial:F2:90:F4:B3:35:FB:84:92

            X509v3 Extended Key Usage: 
                TLS Web Client Authentication
            X509v3 Key Usage: 
                Digital Signature
    Signature Algorithm: sha256WithRSAEncryption
         86:e0:8f:df:75:d7:66:69:86:bd:96:73:69:fb:b7:52:10:4f:
         7f:39:e7:b9:cf:40:4a:98:32:84:2e:59:4c:c6:9f:8c:7a:20:
         49:8e:96:3d:b2:0c:03:62:53:bd:79:f0:8f:c8:08:0b:64:be:
         fa:5f:f7:18:66:d6:62:b0:ed:5f:63:f7:91:c3:f6:aa:f1:36:
         3d:44:14:48:68:18:04:90:03:c7:2c:b2:39:ad:32:5c:3d:03:
         ce:c3:94:47:58:9e:09:1e:97:32:4b:d8:f1:ed:9e:f7:09:e5:
         11:0e:78:a9:9b:c3:d9:42:b7:51:1e:f2:25:ef:bc:81:df:27:
         40:be:a8:a5:df:7d:99:d7:8f:a8:48:f1:34:cc:f4:d0:ce:11:
         ad:67:ad:82:e7:b4:34:af:e5:92:34:18:63:d3:c8:6e:e3:d4:
         18:a7:1f:9a:5f:20:87:ad:d3:8c:de:1f:bc:4b:36:01:31:d6:
         68:2d:07:f5:50:b0:db:27:a6:1e:b8:1c:7a:cd:6e:a3:12:e9:
         8a:56:9d:3e:54:84:e5:43:f7:f0:e1:79:a9:a4:e1:5b:a9:75:
         e5:4f:58:08:f5:6a:4f:85:e5:2d:a0:fd:f8:8e:3f:8e:0c:95:
         1f:ec:0c:79:c6:56:d5:63:2b:8f:54:e5:a3:c9:b5:2a:fc:bf:
         32:89:92:5e
-----BEGIN CERTIFICATE-----
MIIDNjCCAh6gAwIBAgIBGTANBgkqhkiG9w0BAQsFADATMREwDwYDVQQDDAhDaGFu
Z2VNZTAeFw0xNjA0MDUxNTE0MjJaFw0yNjA0MDMxNTE0MjJaMBMxETAPBgNVBAMM
CGQzODU0ODZhMIIBIjANBgkqhkiG9w0BAQEFAAOCAQ8AMIIBCgKCAQEAvICDVG9+
aMeRq7OuWycgYJHESDPE0kDvxK0opQeK5bo4WOI3tDuS7G1EFlOrtj8trcxqelj/
zyLGpWY1dZdFo9sz8qEa5jbwfXi6btcQu4JGnvUrn3eCRivl+A3gTF/i9+bUcL+h
Fp6QoPn9PxqU48lV1+buiFMq27xr347XtLKqpHOxNwz4lhgdZiZGE7r58H3xCwQ6
7NgAJWxxbKwGj/wmuwqTAn0e7/ugPe745RIwwlSCn9VuRfl/evaGzJ/FC3DYsYYA
Rvhvz7++1M+trCacmYXdIketkz2A9UuWEApCb0neZayF2bXcWB9+RUIm3LPUQvqQ
pARhqNFwWNWvVQIDAQABo4GUMIGRMAkGA1UdEwQCMAAwHQYDVR0OBBYEFB8r9mtu
QxMyhEbtwICVgwLNGHjPMEMGA1UdIwQ8MDqAFDAwR198bfK7tsD8MiQgM5Q3NXCn
oRekFTATMREwDwYDVQQDDAhDaGFuZ2VNZYIJAPKQ9LM1+4SSMBMGA1UdJQQMMAoG
CCsGAQUFBwMCMAsGA1UdDwQEAwIHgDANBgkqhkiG9w0BAQsFAAOCAQEAhuCP33XX
ZmmGvZZzafu3UhBPfznnuc9ASpgyhC5ZTMafjHogSY6WPbIMA2JTvXnwj8gIC2S+
+l/3GGbWYrDtX2P3kcP2qvE2PUQUSGgYBJADxyyyOa0yXD0DzsOUR1ieCR6XMkvY
8e2e9wnlEQ54qZvD2UK3UR7yJe+8gd8nQL6opd99mdePqEjxNMz00M4RrWetgue0
NK/lkjQYY9PIbuPUGKcfml8gh63TjN4fvEs2ATHWaC0H9VCw2yemHrgces1uoxLp
iladPlSE5UP38OF5qaThW6l15U9YCPVqT4XlLaD9+I4/jgyVH+wMecZW1WMrj1Tl
o8m1Kvy/MomSXg==
-----END CERTIFICATE-----
