Certificate:
    Data:
        Version: 3 (0x2)
        Serial Number: 26 (0x1a)
    Signature Algorithm: sha256WithRSAEncryption
        Issuer: CN=ChangeMe
        Validity
            Not Before: Apr 12 15:04:01 2016 GMT
            Not After : Apr 10 15:04:01 2026 GMT
        Subject: CN=c44af9b5
        Subject Public Key Info:
            Public Key Algorithm: rsaEncryption
                Public-Key: (2048 bit)
                Modulus:
                    00:d9:5b:b1:a5:92:b1:71:8c:e7:45:18:e1:35:64:
                    d4:05:fb:23:e5:5f:c2:d2:ca:49:35:a2:7e:db:87:
                    77:3b:98:54:fc:7c:3c:5e:f8:f3:b7:81:cb:68:ca:
                    dc:2b:6a:99:e4:3b:d4:76:e6:e3:ef:b8:cb:ce:ce:
                    35:b6:3f:07:7b:5a:23:78:c1:f8:25:5a:75:1f:28:
                    20:37:d6:70:f7:8b:89:41:64:ca:d5:e6:d5:62:4b:
                    92:80:3f:e9:42:b9:8a:56:e1:ac:b3:b8:86:a5:01:
                    dc:20:ef:4f:c1:26:cc:48:67:90:a1:14:ce:71:a7:
                    9e:76:53:4f:70:97:c6:c8:18:23:4a:e9:f0:88:0b:
                    8c:af:c4:ab:69:47:f5:0f:b2:8f:64:b9:e2:eb:90:
                    99:38:da:a8:1a:85:d2:58:ad:72:08:15:e6:57:6d:
                    d6:51:ee:8a:1a:48:c4:a5:a8:9d:82:4e:59:82:8f:
                    36:e4:01:36:f9:b9:54:c7:54:4f:f5:b4:94:8e:b8:
                    d6:55:75:13:a9:21:ff:92:de:42:9c:dc:8e:cf:d9:
                    4c:33:4e:c3:41:66:c8:d3:b6:97:ea:74:9d:3a:ec:
                    1b:a2:e7:24:b4:ce:7a:8e:df:15:98:38:af:f9:2a:
                    4e:3d:5f:1b:f2:89:95:e0:69:eb:df:97:ae:84:e6:
                    2a:17
                Exponent: 65537 (0x10001)
        X509v3 extensions:
            X509v3 Basic Constraints: 
                CA:FALSE
            X509v3 Subject Key Identifier: 
                AE:9A:F3:75:8C:A1:8B:19:7B:DC:9D:70:4D:03:1F:98:20:24:F7:50
            X509v3 Authority Key Identifier: 
                keyid:30:30:47:5F:7C:6D:F2:BB:B6:C0:FC:32:24:20:33:94:37:35:70:A7
                DirName:/CN=ChangeMe
                serial:F2:90:F4:B3:35:FB:84:92

            X509v3 Extended Key Usage: 
                TLS Web Client Authentication
            X509v3 Key Usage: 
                Digital Signature
    Signature Algorithm: sha256WithRSAEncryption
         30:2d:7a:e8:9e:2c:24:44:71:ec:f4:59:8c:fd:2e:97:a5:5b:
         fe:32:26:bd:05:f3:33:3f:78:b1:a9:f8:5f:d1:d0:45:4f:c4:
         95:fd:e3:82:ea:8c:42:16:42:ab:72:8d:a1:3a:79:35:2d:ac:
         2b:bc:85:2a:29:39:cc:20:0e:62:97:4d:e3:5b:8d:2f:d5:a9:
         0d:3e:a7:b2:ac:47:cb:d2:bd:99:81:1e:d1:95:93:e6:c3:36:
         b9:d8:fe:70:c2:2f:df:9e:32:33:cb:ad:0c:2d:d7:43:3d:19:
         11:58:9d:51:7e:a6:66:05:72:34:da:b8:b3:3f:e3:0a:f8:62:
         e0:cc:04:81:92:f5:48:67:b7:0f:5e:35:ae:a2:0f:6e:36:f5:
         4b:bb:65:67:ee:1c:22:01:c7:d1:f9:53:c8:f5:fe:41:d7:7c:
         b6:0c:21:4e:7a:21:2c:20:6d:3b:66:6c:96:4d:46:38:6e:81:
         ed:53:85:6f:30:09:4f:33:92:d3:9b:fa:9c:cb:2c:b7:66:b3:
         00:06:50:9c:de:1d:e3:64:84:44:af:c1:9b:3d:8e:0f:c4:c5:
         ec:7e:2f:8a:59:99:88:07:d2:74:98:30:2c:a2:5d:df:15:e1:
         3b:5a:cf:b3:74:61:ce:57:c8:5c:d2:2b:89:42:74:fc:2f:6e:
         be:79:1b:18
-----BEGIN CERTIFICATE-----
MIIDNjCCAh6gAwIBAgIBGjANBgkqhkiG9w0BAQsFADATMREwDwYDVQQDDAhDaGFu
Z2VNZTAeFw0xNjA0MTIxNTA0MDFaFw0yNjA0MTAxNTA0MDFaMBMxETAPBgNVBAMM
CGM0NGFmOWI1MIIBIjANBgkqhkiG9w0BAQEFAAOCAQ8AMIIBCgKCAQEA2VuxpZKx
cYznRRjhNWTUBfsj5V/C0spJNaJ+24d3O5hU/Hw8Xvjzt4HLaMrcK2qZ5DvUdubj
77jLzs41tj8He1ojeMH4JVp1HyggN9Zw94uJQWTK1ebVYkuSgD/pQrmKVuGss7iG
pQHcIO9PwSbMSGeQoRTOcaeedlNPcJfGyBgjSunwiAuMr8SraUf1D7KPZLni65CZ
ONqoGoXSWK1yCBXmV23WUe6KGkjEpaidgk5Zgo825AE2+blUx1RP9bSUjrjWVXUT
qSH/kt5CnNyOz9lMM07DQWbI07aX6nSdOuwboucktM56jt8VmDiv+SpOPV8b8omV
4Gnr35euhOYqFwIDAQABo4GUMIGRMAkGA1UdEwQCMAAwHQYDVR0OBBYEFK6a83WM
oYsZe9ydcE0DH5ggJPdQMEMGA1UdIwQ8MDqAFDAwR198bfK7tsD8MiQgM5Q3NXCn
oRekFTATMREwDwYDVQQDDAhDaGFuZ2VNZYIJAPKQ9LM1+4SSMBMGA1UdJQQMMAoG
CCsGAQUFBwMCMAsGA1UdDwQEAwIHgDANBgkqhkiG9w0BAQsFAAOCAQEAMC166J4s
JERx7PRZjP0ul6Vb/jImvQXzMz94san4X9HQRU/Elf3jguqMQhZCq3KNoTp5NS2s
K7yFKik5zCAOYpdN41uNL9WpDT6nsqxHy9K9mYEe0ZWT5sM2udj+cMIv354yM8ut
DC3XQz0ZEVidUX6mZgVyNNq4sz/jCvhi4MwEgZL1SGe3D141rqIPbjb1S7tlZ+4c
IgHH0flTyPX+Qdd8tgwhTnohLCBtO2Zslk1GOG6B7VOFbzAJTzOS05v6nMsst2az
AAZQnN4d42SERK/Bmz2OD8TF7H4vilmZiAfSdJgwLKJd3xXhO1rPs3RhzlfIXNIr
iUJ0/C9uvnkbGA==
-----END CERTIFICATE-----
