Certificate:
    Data:
        Version: 3 (0x2)
        Serial Number: 27 (0x1b)
    Signature Algorithm: sha256WithRSAEncryption
        Issuer: CN=ChangeMe
        Validity
            Not Before: Apr 15 13:53:52 2016 GMT
            Not After : Apr 13 13:53:52 2026 GMT
        Subject: CN=f315c87a
        Subject Public Key Info:
            Public Key Algorithm: rsaEncryption
                Public-Key: (2048 bit)
                Modulus:
                    00:e4:f1:75:f0:1b:fc:a0:d4:31:62:66:27:a6:3f:
                    23:09:fa:11:1b:67:61:ee:39:49:13:ac:1c:ff:ac:
                    a4:38:c2:fa:3e:6d:33:63:39:b2:2b:2b:29:92:8a:
                    a7:17:7d:fc:26:be:33:5d:81:2b:c0:d8:19:f6:62:
                    77:56:22:25:bc:ad:8f:15:ee:c8:30:40:16:9f:06:
                    f5:6e:04:ae:96:18:ee:48:71:66:e1:3e:bb:2b:da:
                    e7:38:6f:93:7c:c6:91:de:e6:df:aa:ce:33:06:42:
                    e7:10:24:da:89:c8:f5:c0:b7:a7:a5:77:52:40:80:
                    bb:52:85:fa:88:2d:97:1a:d2:09:b8:d4:12:7e:6d:
                    9f:8e:1d:dc:82:ef:c5:80:c5:7b:90:22:50:5a:8a:
                    13:c3:05:ab:0a:ff:e6:f1:ea:b9:6d:5f:ea:64:e5:
                    9b:83:ed:ff:67:27:85:0f:e5:a2:52:84:5e:2b:2b:
                    d2:a5:af:2b:f9:bf:15:c2:f2:f2:a7:ca:12:10:a1:
                    fa:39:0d:0d:76:a3:4e:1e:51:87:a6:31:dd:a7:39:
                    58:0f:6e:fa:45:9c:64:8e:95:1a:7a:d2:7c:b6:34:
                    44:59:7f:50:c1:54:6a:2f:02:3f:1d:d9:44:da:5a:
                    32:8b:99:03:6f:60:41:77:0d:e9:d4:ac:91:d7:f7:
                    cb:7d
                Exponent: 65537 (0x10001)
        X509v3 extensions:
            X509v3 Basic Constraints: 
                CA:FALSE
            X509v3 Subject Key Identifier: 
                E8:3A:1C:19:C9:53:6A:11:A6:62:9D:81:D1:CB:B6:EA:D0:19:D6:FB
            X509v3 Authority Key Identifier: 
                keyid:30:30:47:5F:7C:6D:F2:BB:B6:C0:FC:32:24:20:33:94:37:35:70:A7
                DirName:/CN=ChangeMe
                serial:F2:90:F4:B3:35:FB:84:92

            X509v3 Extended Key Usage: 
                TLS Web Client Authentication
            X509v3 Key Usage: 
                Digital Signature
    Signature Algorithm: sha256WithRSAEncryption
         b5:e0:a6:d4:d1:58:d8:4f:2a:b7:98:31:ed:e0:c4:a2:a9:47:
         2d:2c:ff:43:99:c9:62:92:d3:28:f0:7d:86:e8:1e:51:a9:9b:
         05:89:a4:ec:55:8d:07:f4:eb:c4:b8:5a:72:87:a4:cf:93:19:
         56:6b:57:50:c9:87:a3:f8:9a:5c:69:4e:bb:e9:bc:ab:d1:18:
         0b:f8:5d:bf:11:b3:8b:76:fe:72:a0:d5:63:22:52:54:bf:c3:
         b7:bb:b9:6c:0d:a4:1b:b5:b8:09:39:90:34:13:2a:5a:4c:29:
         98:11:18:ef:fe:07:97:48:24:20:68:80:9c:3e:31:41:43:7c:
         c2:c9:11:78:fd:1d:96:29:1d:08:e5:44:0d:e5:5e:da:32:74:
         6f:f0:28:68:b1:b7:ff:79:55:b8:a4:b5:16:90:dc:7d:90:17:
         e3:08:40:1b:27:53:d1:b7:e6:82:50:3a:0a:4c:6c:52:80:b1:
         87:58:b3:6a:3a:fc:d7:6e:bd:be:29:2a:fe:bc:48:7c:2d:35:
         76:0d:e5:d7:bf:e1:07:48:5b:4c:4d:0c:1f:12:f4:d9:5f:cc:
         59:68:33:85:d2:ac:57:d9:5a:bf:e1:e3:da:1b:75:3b:e6:a5:
         79:aa:28:fa:83:af:43:14:35:90:32:be:b6:35:c8:b6:57:67:
         95:a8:64:fd
-----BEGIN CERTIFICATE-----
MIIDNjCCAh6gAwIBAgIBGzANBgkqhkiG9w0BAQsFADATMREwDwYDVQQDDAhDaGFu
Z2VNZTAeFw0xNjA0MTUxMzUzNTJaFw0yNjA0MTMxMzUzNTJaMBMxETAPBgNVBAMM
CGYzMTVjODdhMIIBIjANBgkqhkiG9w0BAQEFAAOCAQ8AMIIBCgKCAQEA5PF18Bv8
oNQxYmYnpj8jCfoRG2dh7jlJE6wc/6ykOML6Pm0zYzmyKyspkoqnF338Jr4zXYEr
wNgZ9mJ3ViIlvK2PFe7IMEAWnwb1bgSulhjuSHFm4T67K9rnOG+TfMaR3ubfqs4z
BkLnECTaicj1wLenpXdSQIC7UoX6iC2XGtIJuNQSfm2fjh3cgu/FgMV7kCJQWooT
wwWrCv/m8eq5bV/qZOWbg+3/ZyeFD+WiUoReKyvSpa8r+b8VwvLyp8oSEKH6OQ0N
dqNOHlGHpjHdpzlYD276RZxkjpUaetJ8tjREWX9QwVRqLwI/HdlE2loyi5kDb2BB
dw3p1KyR1/fLfQIDAQABo4GUMIGRMAkGA1UdEwQCMAAwHQYDVR0OBBYEFOg6HBnJ
U2oRpmKdgdHLturQGdb7MEMGA1UdIwQ8MDqAFDAwR198bfK7tsD8MiQgM5Q3NXCn
oRekFTATMREwDwYDVQQDDAhDaGFuZ2VNZYIJAPKQ9LM1+4SSMBMGA1UdJQQMMAoG
CCsGAQUFBwMCMAsGA1UdDwQEAwIHgDANBgkqhkiG9w0BAQsFAAOCAQEAteCm1NFY
2E8qt5gx7eDEoqlHLSz/Q5nJYpLTKPB9hugeUambBYmk7FWNB/TrxLhacoekz5MZ
VmtXUMmHo/iaXGlOu+m8q9EYC/hdvxGzi3b+cqDVYyJSVL/Dt7u5bA2kG7W4CTmQ
NBMqWkwpmBEY7/4Hl0gkIGiAnD4xQUN8wskReP0dlikdCOVEDeVe2jJ0b/AoaLG3
/3lVuKS1FpDcfZAX4whAGydT0bfmglA6CkxsUoCxh1izajr81269vikq/rxIfC01
dg3l17/hB0hbTE0MHxL02V/MWWgzhdKsV9lav+Hj2ht1O+aleaoo+oOvQxQ1kDK+
tjXItldnlahk/Q==
-----END CERTIFICATE-----
