Certificate:
    Data:
        Version: 3 (0x2)
        Serial Number: 28 (0x1c)
    Signature Algorithm: sha256WithRSAEncryption
        Issuer: CN=ChangeMe
        Validity
            Not Before: Apr 19 11:20:43 2016 GMT
            Not After : Apr 17 11:20:43 2026 GMT
        Subject: CN=8b0c5ced
        Subject Public Key Info:
            Public Key Algorithm: rsaEncryption
                Public-Key: (2048 bit)
                Modulus:
                    00:eb:8d:c4:31:a7:a0:68:d7:1a:74:da:21:b8:e3:
                    d5:8a:6e:fb:f7:c6:d8:4e:6b:ba:e0:c7:55:73:46:
                    0d:11:cc:b8:26:24:6f:3d:98:68:c5:db:01:c9:fd:
                    1b:18:99:7e:ee:8a:3d:90:03:0d:20:ea:04:59:f3:
                    fc:28:ad:10:b9:1b:3b:1e:af:05:13:3d:ac:41:18:
                    16:a2:ae:8b:82:d1:eb:2e:e3:c7:8f:fd:6d:f1:6a:
                    26:f2:52:26:9e:68:96:61:ba:4a:82:d5:f8:bf:1f:
                    68:20:42:f1:6a:73:a0:b2:09:a7:5f:ed:fd:d5:39:
                    77:12:b9:47:9f:ce:d6:a3:68:61:3c:f9:b8:39:40:
                    c2:b1:7e:44:f4:1a:9d:ab:77:9a:a8:3d:16:30:e2:
                    aa:e5:de:bb:f2:0d:9d:db:30:8b:24:ca:19:21:ed:
                    50:6f:06:12:9f:76:58:2a:13:ce:b5:32:dc:39:8b:
                    81:b2:36:8a:86:8d:70:3b:81:ae:9e:10:d9:7e:b0:
                    ad:f9:c0:b4:43:2b:ef:69:45:73:af:63:6f:c1:c2:
                    a7:b4:ed:0c:4a:38:a0:d3:82:5e:66:5f:5c:79:db:
                    64:6c:06:cc:bb:bc:19:c7:ae:9f:32:eb:64:9f:ba:
                    3e:0c:6e:3f:c0:67:38:b1:03:b0:09:4b:76:5f:71:
                    28:5f
                Exponent: 65537 (0x10001)
        X509v3 extensions:
            X509v3 Basic Constraints: 
                CA:FALSE
            X509v3 Subject Key Identifier: 
                D9:0E:14:13:C2:B9:F8:A8:64:99:6A:63:85:EE:19:3D:D8:EA:2D:15
            X509v3 Authority Key Identifier: 
                keyid:30:30:47:5F:7C:6D:F2:BB:B6:C0:FC:32:24:20:33:94:37:35:70:A7
                DirName:/CN=ChangeMe
                serial:F2:90:F4:B3:35:FB:84:92

            X509v3 Extended Key Usage: 
                TLS Web Client Authentication
            X509v3 Key Usage: 
                Digital Signature
    Signature Algorithm: sha256WithRSAEncryption
         90:15:36:b3:40:a5:8f:08:b5:7e:55:66:3a:98:c0:ca:85:83:
         5b:b9:49:30:cb:92:22:0e:04:22:6d:01:4f:b6:e9:c5:c0:a9:
         c2:b8:e1:1c:63:6b:c0:f9:ed:5f:82:3b:65:bc:11:13:d6:1a:
         96:75:df:be:7d:5d:56:29:36:ef:d5:d5:2e:5b:5d:f0:3e:7a:
         f9:42:e3:62:3e:33:e4:59:5f:1e:8d:a5:d7:91:e3:d2:98:31:
         93:ab:38:86:d0:1b:31:06:9a:89:b1:4f:da:ac:b3:8c:90:0a:
         eb:52:79:37:19:b7:e1:62:60:aa:d4:77:39:90:1a:4a:de:af:
         13:ba:2d:4d:e4:53:62:e7:f3:d5:56:a9:cd:1a:82:cf:63:19:
         38:82:47:93:83:df:13:fa:ff:cb:95:08:51:02:8a:d4:c2:18:
         f8:bb:94:34:fd:21:90:d1:c3:b1:48:f7:c7:2b:a1:31:57:c3:
         e6:05:39:f6:67:e6:7e:1a:ec:53:b0:94:f7:fd:8c:04:44:48:
         06:63:66:4f:4a:1e:59:b3:e3:d7:2e:d0:5c:b9:1a:aa:7f:eb:
         ee:ec:b0:c0:d7:e1:73:5a:08:61:b1:db:1a:cd:cf:75:03:52:
         35:d2:cd:27:a1:ed:a4:a8:62:4c:42:a7:e3:b1:b5:06:c8:28:
         4f:bc:4b:a6
-----BEGIN CERTIFICATE-----
MIIDNjCCAh6gAwIBAgIBHDANBgkqhkiG9w0BAQsFADATMREwDwYDVQQDDAhDaGFu
Z2VNZTAeFw0xNjA0MTkxMTIwNDNaFw0yNjA0MTcxMTIwNDNaMBMxETAPBgNVBAMM
CDhiMGM1Y2VkMIIBIjANBgkqhkiG9w0BAQEFAAOCAQ8AMIIBCgKCAQEA643EMaeg
aNcadNohuOPVim7798bYTmu64MdVc0YNEcy4JiRvPZhoxdsByf0bGJl+7oo9kAMN
IOoEWfP8KK0QuRs7Hq8FEz2sQRgWoq6LgtHrLuPHj/1t8Wom8lImnmiWYbpKgtX4
vx9oIELxanOgsgmnX+391Tl3ErlHn87Wo2hhPPm4OUDCsX5E9Bqdq3eaqD0WMOKq
5d678g2d2zCLJMoZIe1QbwYSn3ZYKhPOtTLcOYuBsjaKho1wO4GunhDZfrCt+cC0
QyvvaUVzr2NvwcKntO0MSjig04JeZl9cedtkbAbMu7wZx66fMutkn7o+DG4/wGc4
sQOwCUt2X3EoXwIDAQABo4GUMIGRMAkGA1UdEwQCMAAwHQYDVR0OBBYEFNkOFBPC
ufioZJlqY4XuGT3Y6i0VMEMGA1UdIwQ8MDqAFDAwR198bfK7tsD8MiQgM5Q3NXCn
oRekFTATMREwDwYDVQQDDAhDaGFuZ2VNZYIJAPKQ9LM1+4SSMBMGA1UdJQQMMAoG
CCsGAQUFBwMCMAsGA1UdDwQEAwIHgDANBgkqhkiG9w0BAQsFAAOCAQEAkBU2s0Cl
jwi1flVmOpjAyoWDW7lJMMuSIg4EIm0BT7bpxcCpwrjhHGNrwPntX4I7ZbwRE9Ya
lnXfvn1dVik279XVLltd8D56+ULjYj4z5FlfHo2l15Hj0pgxk6s4htAbMQaaibFP
2qyzjJAK61J5Nxm34WJgqtR3OZAaSt6vE7otTeRTYufz1VapzRqCz2MZOIJHk4Pf
E/r/y5UIUQKK1MIY+LuUNP0hkNHDsUj3xyuhMVfD5gU59mfmfhrsU7CU9/2MBERI
BmNmT0oeWbPj1y7QXLkaqn/r7uywwNfhc1oIYbHbGs3PdQNSNdLNJ6HtpKhiTEKn
47G1BsgoT7xLpg==
-----END CERTIFICATE-----
