Certificate:
    Data:
        Version: 3 (0x2)
        Serial Number: 30 (0x1e)
    Signature Algorithm: sha256WithRSAEncryption
        Issuer: CN=ChangeMe
        Validity
            Not Before: Apr 23 14:08:28 2016 GMT
            Not After : Apr 21 14:08:28 2026 GMT
        Subject: CN=7ff36364
        Subject Public Key Info:
            Public Key Algorithm: rsaEncryption
                Public-Key: (2048 bit)
                Modulus:
                    00:a3:07:d1:85:7a:65:ef:36:d2:db:16:a9:42:f0:
                    fe:04:5b:13:9a:97:e0:f0:cc:f6:7f:81:82:ac:22:
                    31:96:bc:03:b5:c8:8a:e0:69:c0:27:be:0c:3d:7e:
                    dc:15:1b:bc:99:36:d0:ac:af:05:34:32:4b:d9:af:
                    58:b0:f9:e6:5d:20:12:b6:a5:33:3d:dc:21:30:e5:
                    23:4b:b8:b2:56:db:60:86:9c:b2:fe:3f:49:d5:06:
                    b1:cc:38:23:ae:c1:5f:5d:91:24:6a:a3:98:0f:c9:
                    b5:42:44:1b:cc:25:d1:49:8a:33:11:89:a8:97:86:
                    42:1d:71:7d:a0:85:2d:fc:40:72:94:80:c6:90:ae:
                    75:35:89:7b:f4:48:8b:86:49:cc:37:75:0c:84:99:
                    d0:4d:0d:55:ed:07:6b:14:2b:01:f2:19:d7:8e:fa:
                    04:e0:2a:38:e2:93:6a:9b:3c:32:74:48:5f:bc:8f:
                    50:b8:e0:48:12:cb:f1:cb:b5:09:1b:80:07:c8:0a:
                    b3:2e:c6:a3:08:dc:9e:01:16:94:b0:fb:be:ea:a3:
                    29:ed:ae:09:c0:0c:73:5f:d5:50:d3:3c:f1:15:19:
                    6e:95:d7:5d:ca:7b:4c:2d:6a:bb:9b:fe:c1:17:b5:
                    80:71:c1:a5:3e:f9:f3:0e:c2:c1:ff:2a:ff:f3:fa:
                    27:51
                Exponent: 65537 (0x10001)
        X509v3 extensions:
            X509v3 Basic Constraints: 
                CA:FALSE
            X509v3 Subject Key Identifier: 
                14:76:35:64:08:58:8C:5E:B3:F0:81:55:42:CC:1C:6C:98:C6:44:60
            X509v3 Authority Key Identifier: 
                keyid:30:30:47:5F:7C:6D:F2:BB:B6:C0:FC:32:24:20:33:94:37:35:70:A7
                DirName:/CN=ChangeMe
                serial:F2:90:F4:B3:35:FB:84:92

            X509v3 Extended Key Usage: 
                TLS Web Client Authentication
            X509v3 Key Usage: 
                Digital Signature
    Signature Algorithm: sha256WithRSAEncryption
         2c:66:9d:1f:8e:32:37:88:8d:06:a3:d0:2f:b3:eb:c5:17:46:
         09:f1:88:c3:c7:8f:df:46:3d:67:93:cd:78:fc:55:99:6c:ab:
         5f:8d:40:aa:22:53:14:98:f4:ef:da:eb:ed:f0:00:03:76:db:
         a2:e6:a4:4c:f6:9e:3b:a2:68:c0:15:88:61:71:68:01:a5:73:
         b6:f2:b8:8a:6c:d4:95:e8:26:69:32:6b:46:fc:9c:e0:e9:c9:
         ff:77:90:6c:58:d0:2f:58:94:84:86:06:6a:1d:2b:12:ee:f0:
         c8:24:ab:b5:75:f6:2f:d7:0a:ec:fe:15:1f:4f:d4:97:86:3c:
         ce:e8:37:5c:25:66:05:76:90:d1:45:25:e2:94:25:dd:0f:ab:
         db:8d:af:6f:9f:f7:d3:c0:c1:1b:6f:9f:bf:82:93:90:ff:14:
         e6:0f:96:f0:7d:e3:b4:4e:d2:9f:f5:d6:ff:39:4f:61:64:da:
         1f:39:38:0c:ca:a9:97:71:b0:00:82:40:7f:34:ce:20:f1:f4:
         bb:f8:7c:96:2c:11:d3:b7:8d:00:37:05:58:e6:52:7d:9b:f7:
         f2:77:16:77:26:4b:c4:1a:e5:44:2f:ce:4f:42:03:fd:65:3c:
         88:7c:03:6b:fa:55:35:33:b4:f3:96:d3:98:9c:f6:a4:83:38:
         42:8b:59:d9
-----BEGIN CERTIFICATE-----
MIIDNjCCAh6gAwIBAgIBHjANBgkqhkiG9w0BAQsFADATMREwDwYDVQQDDAhDaGFu
Z2VNZTAeFw0xNjA0MjMxNDA4MjhaFw0yNjA0MjExNDA4MjhaMBMxETAPBgNVBAMM
CDdmZjM2MzY0MIIBIjANBgkqhkiG9w0BAQEFAAOCAQ8AMIIBCgKCAQEAowfRhXpl
7zbS2xapQvD+BFsTmpfg8Mz2f4GCrCIxlrwDtciK4GnAJ74MPX7cFRu8mTbQrK8F
NDJL2a9YsPnmXSAStqUzPdwhMOUjS7iyVttghpyy/j9J1QaxzDgjrsFfXZEkaqOY
D8m1QkQbzCXRSYozEYmol4ZCHXF9oIUt/EBylIDGkK51NYl79EiLhknMN3UMhJnQ
TQ1V7QdrFCsB8hnXjvoE4Co44pNqmzwydEhfvI9QuOBIEsvxy7UJG4AHyAqzLsaj
CNyeARaUsPu+6qMp7a4JwAxzX9VQ0zzxFRluldddyntMLWq7m/7BF7WAccGlPvnz
DsLB/yr/8/onUQIDAQABo4GUMIGRMAkGA1UdEwQCMAAwHQYDVR0OBBYEFBR2NWQI
WIxes/CBVULMHGyYxkRgMEMGA1UdIwQ8MDqAFDAwR198bfK7tsD8MiQgM5Q3NXCn
oRekFTATMREwDwYDVQQDDAhDaGFuZ2VNZYIJAPKQ9LM1+4SSMBMGA1UdJQQMMAoG
CCsGAQUFBwMCMAsGA1UdDwQEAwIHgDANBgkqhkiG9w0BAQsFAAOCAQEALGadH44y
N4iNBqPQL7PrxRdGCfGIw8eP30Y9Z5PNePxVmWyrX41AqiJTFJj079rr7fAAA3bb
ouakTPaeO6JowBWIYXFoAaVztvK4imzUlegmaTJrRvyc4OnJ/3eQbFjQL1iUhIYG
ah0rEu7wyCSrtXX2L9cK7P4VH0/Ul4Y8zug3XCVmBXaQ0UUl4pQl3Q+r242vb5/3
08DBG2+fv4KTkP8U5g+W8H3jtE7Sn/XW/zlPYWTaHzk4DMqpl3GwAIJAfzTOIPH0
u/h8liwR07eNADcFWOZSfZv38ncWdyZLxBrlRC/OT0ID/WU8iHwDa/pVNTO085bT
mJz2pIM4QotZ2Q==
-----END CERTIFICATE-----
