Certificate:
    Data:
        Version: 3 (0x2)
        Serial Number: 31 (0x1f)
    Signature Algorithm: sha256WithRSAEncryption
        Issuer: CN=ChangeMe
        Validity
            Not Before: May  1 07:23:58 2016 GMT
            Not After : Apr 29 07:23:58 2026 GMT
        Subject: CN=96b39397
        Subject Public Key Info:
            Public Key Algorithm: rsaEncryption
                Public-Key: (2048 bit)
                Modulus:
                    00:9b:ab:84:28:c6:9e:21:6e:06:94:3c:36:62:8f:
                    ef:7e:ce:29:fd:50:f5:14:ad:04:e8:bd:4b:ea:80:
                    41:67:49:18:c5:86:8c:cd:4e:f7:b1:8a:85:cb:1c:
                    72:2e:24:cf:8c:0f:2a:da:ae:89:25:0d:9c:13:6b:
                    81:4c:5b:23:34:f1:ac:45:62:1b:e5:1c:cc:6b:b9:
                    2b:54:f1:29:41:45:8b:e3:8d:a6:db:9f:87:4c:39:
                    c8:76:86:93:cd:76:bb:19:5f:c2:f2:26:3f:65:b6:
                    34:54:9f:ea:82:a1:dc:38:b7:4d:84:ee:42:1c:a1:
                    10:82:d6:af:cc:6d:29:82:b5:24:21:bb:a5:1e:a0:
                    e1:fa:78:fe:92:3f:d1:3e:3c:f6:4d:94:92:1b:c8:
                    6d:75:3b:d0:a9:9c:a8:b8:6f:d2:28:5a:2c:a4:f5:
                    f3:4d:8c:00:1f:66:72:93:a4:81:91:78:90:4a:60:
                    b8:c6:7f:db:f5:33:91:3a:af:f7:92:6c:6e:97:ed:
                    bd:c5:b5:49:0b:35:31:42:cf:01:a1:0b:d6:44:22:
                    13:a6:7f:2a:81:4e:9d:5a:07:8a:21:88:39:ff:e7:
                    8c:53:d8:b8:e4:0a:65:13:6b:21:82:5e:9d:cf:3b:
                    cd:63:ec:04:cb:e7:d5:d5:03:60:52:b1:a6:a3:5f:
                    b8:a3
                Exponent: 65537 (0x10001)
        X509v3 extensions:
            X509v3 Basic Constraints: 
                CA:FALSE
            X509v3 Subject Key Identifier: 
                43:4B:55:DB:F1:00:32:89:B2:39:6B:32:02:CC:A1:1F:0C:BD:AD:C9
            X509v3 Authority Key Identifier: 
                keyid:30:30:47:5F:7C:6D:F2:BB:B6:C0:FC:32:24:20:33:94:37:35:70:A7
                DirName:/CN=ChangeMe
                serial:F2:90:F4:B3:35:FB:84:92

            X509v3 Extended Key Usage: 
                TLS Web Client Authentication
            X509v3 Key Usage: 
                Digital Signature
    Signature Algorithm: sha256WithRSAEncryption
         b2:44:6f:06:01:69:ea:8b:cb:02:df:50:89:67:a9:de:3f:75:
         6f:93:04:e4:2a:c3:79:17:19:97:df:f4:43:57:60:9c:5c:fa:
         d1:a3:8d:57:32:f6:82:9d:19:78:f7:c3:06:21:bf:64:ef:c5:
         92:f0:28:8a:82:58:b3:e8:fa:b7:98:68:c9:7e:0c:aa:87:6a:
         65:56:ee:ad:85:ec:8f:3e:3a:62:5a:70:da:79:3d:5d:3f:36:
         79:a2:8e:5f:21:ed:3a:42:ed:fc:54:d5:40:65:ba:89:6a:f2:
         e0:83:4e:03:de:93:d5:fc:9c:0f:03:e4:9b:f4:59:3b:01:73:
         4c:ba:28:e7:ae:58:1d:37:b4:60:4e:06:2e:01:eb:d8:e1:27:
         a5:19:41:bf:e1:02:53:6a:61:56:f3:0c:ee:1f:6f:ce:49:88:
         12:c8:f1:4d:eb:01:60:61:72:78:cd:32:05:8c:04:34:54:7e:
         e4:ff:4d:eb:35:92:c3:5e:90:bb:5f:9e:84:bb:8e:63:91:71:
         c4:b1:a0:17:a0:2d:0d:69:ad:72:cd:94:43:3f:f5:71:65:a2:
         26:c1:39:59:b8:a7:05:3b:04:f0:0e:fe:fd:24:fd:40:58:72:
         77:83:07:1c:fb:49:09:20:e5:0f:76:b9:9b:6b:f5:aa:8e:a7:
         cf:ba:6f:36
-----BEGIN CERTIFICATE-----
MIIDNjCCAh6gAwIBAgIBHzANBgkqhkiG9w0BAQsFADATMREwDwYDVQQDDAhDaGFu
Z2VNZTAeFw0xNjA1MDEwNzIzNThaFw0yNjA0MjkwNzIzNThaMBMxETAPBgNVBAMM
CDk2YjM5Mzk3MIIBIjANBgkqhkiG9w0BAQEFAAOCAQ8AMIIBCgKCAQEAm6uEKMae
IW4GlDw2Yo/vfs4p/VD1FK0E6L1L6oBBZ0kYxYaMzU73sYqFyxxyLiTPjA8q2q6J
JQ2cE2uBTFsjNPGsRWIb5RzMa7krVPEpQUWL442m25+HTDnIdoaTzXa7GV/C8iY/
ZbY0VJ/qgqHcOLdNhO5CHKEQgtavzG0pgrUkIbulHqDh+nj+kj/RPjz2TZSSG8ht
dTvQqZyouG/SKFospPXzTYwAH2Zyk6SBkXiQSmC4xn/b9TOROq/3kmxul+29xbVJ
CzUxQs8BoQvWRCITpn8qgU6dWgeKIYg5/+eMU9i45AplE2shgl6dzzvNY+wEy+fV
1QNgUrGmo1+4owIDAQABo4GUMIGRMAkGA1UdEwQCMAAwHQYDVR0OBBYEFENLVdvx
ADKJsjlrMgLMoR8Mva3JMEMGA1UdIwQ8MDqAFDAwR198bfK7tsD8MiQgM5Q3NXCn
oRekFTATMREwDwYDVQQDDAhDaGFuZ2VNZYIJAPKQ9LM1+4SSMBMGA1UdJQQMMAoG
CCsGAQUFBwMCMAsGA1UdDwQEAwIHgDANBgkqhkiG9w0BAQsFAAOCAQEAskRvBgFp
6ovLAt9QiWep3j91b5ME5CrDeRcZl9/0Q1dgnFz60aONVzL2gp0ZePfDBiG/ZO/F
kvAoioJYs+j6t5hoyX4MqodqZVburYXsjz46Ylpw2nk9XT82eaKOXyHtOkLt/FTV
QGW6iWry4INOA96T1fycDwPkm/RZOwFzTLoo565YHTe0YE4GLgHr2OEnpRlBv+EC
U2phVvMM7h9vzkmIEsjxTesBYGFyeM0yBYwENFR+5P9N6zWSw16Qu1+ehLuOY5Fx
xLGgF6AtDWmtcs2UQz/1cWWiJsE5WbinBTsE8A7+/ST9QFhyd4MHHPtJCSDlD3a5
m2v1qo6nz7pvNg==
-----END CERTIFICATE-----
