Certificate:
    Data:
        Version: 3 (0x2)
        Serial Number: 32 (0x20)
    Signature Algorithm: sha256WithRSAEncryption
        Issuer: CN=ChangeMe
        Validity
            Not Before: May  2 08:03:42 2016 GMT
            Not After : Apr 30 08:03:42 2026 GMT
        Subject: CN=de2-e97fc0b1
        Subject Public Key Info:
            Public Key Algorithm: rsaEncryption
                Public-Key: (2048 bit)
                Modulus:
                    00:cc:4b:a4:99:96:97:e7:96:59:60:25:9e:52:91:
                    a6:69:82:96:76:d1:d2:98:16:83:dd:62:60:d2:19:
                    0f:50:dd:4d:39:40:00:9c:e8:75:9e:ce:c8:51:b5:
                    ea:4e:76:2c:e2:4d:8a:65:17:17:fe:6d:5f:76:3c:
                    4a:bc:1e:47:47:29:d2:e4:dc:d6:7b:c0:fe:5e:f0:
                    1e:75:aa:5e:c0:86:20:d5:ff:24:ff:4a:05:fa:27:
                    47:94:de:6c:12:72:60:b9:63:de:07:2e:0b:db:66:
                    85:ef:c9:a2:06:3a:f1:f3:96:49:ee:19:8a:7b:f6:
                    a1:61:ea:0d:c3:fd:36:89:63:3e:fb:a8:6c:40:68:
                    57:41:0a:c9:40:f6:59:56:e4:a2:03:66:0a:07:90:
                    a9:a3:22:5c:f1:a6:75:f7:f6:f4:2c:17:9c:d0:10:
                    20:82:14:0f:5c:52:22:d4:4b:ea:bb:c4:b8:35:57:
                    9f:44:d6:07:db:79:11:7b:8d:3e:fd:e6:84:fe:8d:
                    2d:58:61:25:a2:48:77:13:22:12:c0:f2:bc:1f:58:
                    9f:bd:9a:81:0d:bf:00:04:cb:f0:20:14:a5:27:27:
                    a2:5b:3b:5f:a5:c1:6c:67:88:f2:d7:9b:05:e9:5b:
                    a6:dd:95:67:c9:9b:33:c4:e8:63:eb:c5:d0:d6:32:
                    40:69
                Exponent: 65537 (0x10001)
        X509v3 extensions:
            X509v3 Basic Constraints: 
                CA:FALSE
            X509v3 Subject Key Identifier: 
                F8:E8:3A:67:C2:5A:D7:6D:5D:71:EF:5F:BF:91:E7:8D:87:11:0B:A7
            X509v3 Authority Key Identifier: 
                keyid:30:30:47:5F:7C:6D:F2:BB:B6:C0:FC:32:24:20:33:94:37:35:70:A7
                DirName:/CN=ChangeMe
                serial:F2:90:F4:B3:35:FB:84:92

            X509v3 Extended Key Usage: 
                TLS Web Client Authentication
            X509v3 Key Usage: 
                Digital Signature
    Signature Algorithm: sha256WithRSAEncryption
         94:97:4b:59:90:4e:f5:bf:7f:58:cf:ce:60:c4:fe:83:01:fd:
         95:fe:e0:ed:40:b2:1a:96:b8:52:5d:ee:0b:08:14:d7:f8:b5:
         17:d8:5e:2c:a3:2f:34:cd:11:86:0c:ce:df:99:2c:90:6b:7e:
         8a:cf:29:c9:80:6e:be:19:b2:68:c8:e6:54:10:63:f8:f4:37:
         23:97:eb:0c:2c:64:3c:48:f4:b5:fa:fc:a0:d5:57:cf:07:a7:
         29:dc:82:ad:f8:62:cc:aa:73:07:b1:af:1f:cf:e3:59:f3:89:
         ac:ca:f5:b7:2d:a7:0d:af:cc:e4:c2:12:cc:20:ee:69:60:8a:
         68:e6:7e:0c:13:14:70:f0:ba:c9:f8:8f:37:3f:56:4e:13:b1:
         72:92:4d:f8:93:1d:b4:20:a3:5f:ff:c5:9a:2f:61:c9:18:d7:
         67:ef:c4:aa:25:77:57:8e:50:b6:01:57:df:56:f2:83:dc:b6:
         4a:97:c6:a7:69:20:5b:0b:18:ac:77:f2:66:03:5e:57:45:c1:
         7d:1e:18:68:08:e5:33:2e:63:b0:2b:b3:fa:a2:b8:0f:02:4b:
         2b:7b:00:84:30:fd:8e:12:47:0a:89:ab:cf:f8:38:59:2a:2a:
         d0:0f:c6:c0:c8:3f:26:1d:91:ca:95:45:9e:cd:cc:5e:73:31:
         06:ba:d6:e9
-----BEGIN CERTIFICATE-----
MIIDOjCCAiKgAwIBAgIBIDANBgkqhkiG9w0BAQsFADATMREwDwYDVQQDDAhDaGFu
Z2VNZTAeFw0xNjA1MDIwODAzNDJaFw0yNjA0MzAwODAzNDJaMBcxFTATBgNVBAMM
DGRlMi1lOTdmYzBiMTCCASIwDQYJKoZIhvcNAQEBBQADggEPADCCAQoCggEBAMxL
pJmWl+eWWWAlnlKRpmmClnbR0pgWg91iYNIZD1DdTTlAAJzodZ7OyFG16k52LOJN
imUXF/5tX3Y8SrweR0cp0uTc1nvA/l7wHnWqXsCGINX/JP9KBfonR5TebBJyYLlj
3gcuC9tmhe/JogY68fOWSe4Zinv2oWHqDcP9NoljPvuobEBoV0EKyUD2WVbkogNm
CgeQqaMiXPGmdff29CwXnNAQIIIUD1xSItRL6rvEuDVXn0TWB9t5EXuNPv3mhP6N
LVhhJaJIdxMiEsDyvB9Yn72agQ2/AATL8CAUpScnols7X6XBbGeI8tebBelbpt2V
Z8mbM8ToY+vF0NYyQGkCAwEAAaOBlDCBkTAJBgNVHRMEAjAAMB0GA1UdDgQWBBT4
6DpnwlrXbV1x71+/keeNhxELpzBDBgNVHSMEPDA6gBQwMEdffG3yu7bA/DIkIDOU
NzVwp6EXpBUwEzERMA8GA1UEAwwIQ2hhbmdlTWWCCQDykPSzNfuEkjATBgNVHSUE
DDAKBggrBgEFBQcDAjALBgNVHQ8EBAMCB4AwDQYJKoZIhvcNAQELBQADggEBAJSX
S1mQTvW/f1jPzmDE/oMB/ZX+4O1AshqWuFJd7gsIFNf4tRfYXiyjLzTNEYYMzt+Z
LJBrforPKcmAbr4ZsmjI5lQQY/j0NyOX6wwsZDxI9LX6/KDVV88Hpyncgq34Ysyq
cwexrx/P41nziazK9bctpw2vzOTCEswg7mlgimjmfgwTFHDwusn4jzc/Vk4TsXKS
TfiTHbQgo1//xZovYckY12fvxKold1eOULYBV99W8oPctkqXxqdpIFsLGKx38mYD
XldFwX0eGGgI5TMuY7Ars/qiuA8CSyt7AIQw/Y4SRwqJq8/4OFkqKtAPxsDIPyYd
kcqVRZ7NzF5zMQa61uk=
-----END CERTIFICATE-----
