Certificate:
    Data:
        Version: 3 (0x2)
        Serial Number: 33 (0x21)
    Signature Algorithm: sha256WithRSAEncryption
        Issuer: CN=ChangeMe
        Validity
            Not Before: May  3 22:06:10 2016 GMT
            Not After : May  1 22:06:10 2026 GMT
        Subject: CN=de2-e0c83dfe
        Subject Public Key Info:
            Public Key Algorithm: rsaEncryption
                Public-Key: (2048 bit)
                Modulus:
                    00:cc:68:7a:7e:70:c4:e8:04:3b:fa:f3:f4:a4:98:
                    55:fa:ce:13:f8:08:c8:d7:29:e2:94:d7:7f:e9:15:
                    c1:a8:61:15:07:80:cb:a0:98:ed:b9:95:ef:77:19:
                    6d:de:cd:2c:5c:ad:79:83:6e:0b:57:9c:0c:5b:78:
                    37:17:64:37:0e:5c:d9:68:9b:a4:5b:06:3f:ae:d7:
                    f7:0e:27:fd:eb:4d:e7:fe:fe:15:89:e6:b4:9d:55:
                    2d:f4:b0:9e:76:24:13:e5:0e:91:44:94:e8:c4:4b:
                    18:4b:25:4c:c9:c5:f3:42:2d:21:96:6a:6f:c4:a1:
                    aa:3c:01:ca:e5:ef:4e:b4:9a:35:d9:a1:51:44:96:
                    b8:95:6b:f8:4b:0d:0d:a2:f8:80:23:4a:68:c0:de:
                    3f:38:3f:e5:fe:f1:d9:de:62:0b:30:85:e9:83:b0:
                    18:58:33:a9:e1:e4:a3:72:05:6d:6a:ae:73:ea:76:
                    b1:ac:ef:5c:19:64:42:61:bf:b6:4b:29:af:c2:23:
                    50:08:a0:b8:17:41:22:7e:66:bf:0b:6a:83:a3:2d:
                    dd:50:82:01:d2:ad:dc:67:b8:2e:a2:77:e4:2a:72:
                    48:5e:52:52:e0:40:62:30:09:62:3d:a4:ef:09:31:
                    8d:b9:31:bf:60:84:fe:02:25:fe:ae:46:bd:0d:fe:
                    2f:ed
                Exponent: 65537 (0x10001)
        X509v3 extensions:
            X509v3 Basic Constraints: 
                CA:FALSE
            X509v3 Subject Key Identifier: 
                61:AC:90:16:CE:65:ED:09:FE:32:4C:19:85:C0:BC:9C:8A:20:12:FF
            X509v3 Authority Key Identifier: 
                keyid:30:30:47:5F:7C:6D:F2:BB:B6:C0:FC:32:24:20:33:94:37:35:70:A7
                DirName:/CN=ChangeMe
                serial:F2:90:F4:B3:35:FB:84:92

            X509v3 Extended Key Usage: 
                TLS Web Client Authentication
            X509v3 Key Usage: 
                Digital Signature
    Signature Algorithm: sha256WithRSAEncryption
         7a:9b:f7:bc:37:11:17:a5:ea:2f:2e:58:bf:86:3d:2f:c7:ad:
         98:8b:af:e4:60:4a:1b:c1:08:f8:03:ee:59:d1:d6:75:88:79:
         18:77:a4:46:13:ab:1c:e7:61:7a:9c:ad:5a:1c:a8:30:42:52:
         c6:07:88:c8:b8:b1:2b:77:d3:48:21:f0:d8:3d:5d:c4:2c:bf:
         b1:8c:5f:c0:5d:3c:fa:0c:57:4e:4a:73:1b:06:b5:a7:5b:68:
         1e:63:53:2f:ef:fa:a3:56:a7:cb:83:d5:ed:9c:42:18:28:3e:
         c7:60:f7:23:2a:ba:a5:86:9e:48:75:7a:6f:2b:0d:ed:75:74:
         6a:00:16:31:c5:c3:57:2f:22:3b:3d:df:5e:3d:6c:39:77:25:
         22:cb:9c:e9:91:6a:06:b9:42:09:be:d7:1c:ce:79:27:b9:e5:
         a8:25:b3:ac:83:6d:55:d8:5b:6f:f8:7f:8c:d8:ec:95:b4:86:
         b7:83:4e:32:07:63:16:45:d9:50:90:e9:b9:a7:92:73:3c:4c:
         32:d5:d0:57:dd:ee:7b:27:10:5d:57:a7:e4:84:e3:be:22:fc:
         05:ea:21:31:5a:ce:b2:91:63:78:7f:3d:51:79:01:56:cb:fe:
         1a:c6:19:df:d8:b3:87:a0:e2:ce:04:6b:16:6b:67:fe:21:9f:
         21:fb:bd:7d
-----BEGIN CERTIFICATE-----
MIIDOjCCAiKgAwIBAgIBITANBgkqhkiG9w0BAQsFADATMREwDwYDVQQDDAhDaGFu
Z2VNZTAeFw0xNjA1MDMyMjA2MTBaFw0yNjA1MDEyMjA2MTBaMBcxFTATBgNVBAMM
DGRlMi1lMGM4M2RmZTCCASIwDQYJKoZIhvcNAQEBBQADggEPADCCAQoCggEBAMxo
en5wxOgEO/rz9KSYVfrOE/gIyNcp4pTXf+kVwahhFQeAy6CY7bmV73cZbd7NLFyt
eYNuC1ecDFt4NxdkNw5c2WibpFsGP67X9w4n/etN5/7+FYnmtJ1VLfSwnnYkE+UO
kUSU6MRLGEslTMnF80ItIZZqb8ShqjwByuXvTrSaNdmhUUSWuJVr+EsNDaL4gCNK
aMDePzg/5f7x2d5iCzCF6YOwGFgzqeHko3IFbWquc+p2sazvXBlkQmG/tkspr8Ij
UAiguBdBIn5mvwtqg6Mt3VCCAdKt3Ge4LqJ35CpySF5SUuBAYjAJYj2k7wkxjbkx
v2CE/gIl/q5GvQ3+L+0CAwEAAaOBlDCBkTAJBgNVHRMEAjAAMB0GA1UdDgQWBBRh
rJAWzmXtCf4yTBmFwLyciiAS/zBDBgNVHSMEPDA6gBQwMEdffG3yu7bA/DIkIDOU
NzVwp6EXpBUwEzERMA8GA1UEAwwIQ2hhbmdlTWWCCQDykPSzNfuEkjATBgNVHSUE
DDAKBggrBgEFBQcDAjALBgNVHQ8EBAMCB4AwDQYJKoZIhvcNAQELBQADggEBAHqb
97w3ERel6i8uWL+GPS/HrZiLr+RgShvBCPgD7lnR1nWIeRh3pEYTqxznYXqcrVoc
qDBCUsYHiMi4sSt300gh8Ng9XcQsv7GMX8BdPPoMV05KcxsGtadbaB5jUy/v+qNW
p8uD1e2cQhgoPsdg9yMquqWGnkh1em8rDe11dGoAFjHFw1cvIjs93149bDl3JSLL
nOmRaga5Qgm+1xzOeSe55agls6yDbVXYW2/4f4zY7JW0hreDTjIHYxZF2VCQ6bmn
knM8TDLV0Ffd7nsnEF1Xp+SE474i/AXqITFazrKRY3h/PVF5AVbL/hrGGd/Ys4eg
4s4EaxZrZ/4hnyH7vX0=
-----END CERTIFICATE-----
