Certificate:
    Data:
        Version: 3 (0x2)
        Serial Number: 34 (0x22)
    Signature Algorithm: sha256WithRSAEncryption
        Issuer: CN=ChangeMe
        Validity
            Not Before: May  4 08:18:39 2016 GMT
            Not After : May  2 08:18:39 2026 GMT
        Subject: CN=de2-11fe433b
        Subject Public Key Info:
            Public Key Algorithm: rsaEncryption
                Public-Key: (2048 bit)
                Modulus:
                    00:e8:00:84:4f:40:8c:ec:f4:df:5a:88:63:54:45:
                    b9:f1:ca:34:b4:50:6b:52:3d:ce:67:a0:17:7f:43:
                    9b:d3:f1:73:01:71:d4:c0:a7:43:3e:15:b2:df:4d:
                    c2:4f:f8:e2:9a:26:3f:da:c2:1f:75:2c:44:20:31:
                    65:b5:91:1d:b7:ba:89:05:47:42:cd:9e:b0:7e:49:
                    0c:93:8f:79:b3:da:21:2f:7e:f8:cb:cf:9c:da:c8:
                    2d:06:68:07:86:32:93:e7:cb:9c:74:f8:f8:54:11:
                    af:b5:17:e7:21:48:3b:e7:53:40:74:43:81:8b:bc:
                    15:1d:53:b8:82:a9:5a:80:a4:c0:d0:9a:4d:cc:61:
                    56:a4:b0:0b:88:5e:33:3b:9e:ac:3f:64:88:9d:b3:
                    fc:73:00:07:c4:46:a4:b6:4a:5b:4b:bf:a1:bb:1a:
                    94:f8:c4:1f:eb:ab:ff:f0:7f:75:ef:e5:97:1a:27:
                    fc:fb:57:3f:5d:43:ed:0d:b3:9a:23:58:8d:44:10:
                    6e:74:49:52:ee:35:04:ac:85:b9:b0:cb:0c:dd:e6:
                    56:19:17:a4:ec:9f:d4:fd:b1:e5:9c:0f:74:44:42:
                    86:55:51:37:75:e2:92:85:93:c2:0f:9f:46:5d:15:
                    bd:42:8e:f1:8a:e1:20:7f:16:1a:a8:70:16:26:a8:
                    67:cd
                Exponent: 65537 (0x10001)
        X509v3 extensions:
            X509v3 Basic Constraints: 
                CA:FALSE
            X509v3 Subject Key Identifier: 
                64:8D:D3:D3:C3:2D:F9:4B:2B:2C:7D:91:D7:10:36:57:04:CF:D8:9E
            X509v3 Authority Key Identifier: 
                keyid:30:30:47:5F:7C:6D:F2:BB:B6:C0:FC:32:24:20:33:94:37:35:70:A7
                DirName:/CN=ChangeMe
                serial:F2:90:F4:B3:35:FB:84:92

            X509v3 Extended Key Usage: 
                TLS Web Client Authentication
            X509v3 Key Usage: 
                Digital Signature
    Signature Algorithm: sha256WithRSAEncryption
         37:7c:a4:23:49:2a:64:51:b1:3b:c6:85:a6:ac:24:a0:d8:c4:
         fe:99:7b:77:20:2b:df:4b:84:0c:5c:6e:08:35:69:df:30:2a:
         12:a0:fb:12:b6:13:83:5a:3b:d5:4a:bc:d2:3d:e4:97:23:1f:
         97:c8:27:bc:97:41:6b:6d:31:f1:54:aa:19:57:ef:f0:b1:13:
         39:f5:e9:95:66:44:67:42:ad:e4:5e:b1:d0:4e:00:83:5b:72:
         a8:96:74:e5:19:ba:ab:63:64:d3:fe:83:69:4f:69:ba:1d:e4:
         f6:7f:66:1b:8f:58:3d:bf:2e:6e:0a:8a:4a:9b:b1:66:b9:72:
         b1:88:05:86:ef:68:75:47:85:29:df:9c:73:17:1e:d5:77:52:
         44:12:33:4f:84:bc:00:f3:5b:7a:80:0d:0a:13:35:25:d6:3c:
         8c:26:f0:51:14:93:f1:66:98:7b:41:39:fe:5d:99:95:12:46:
         db:e6:2b:b1:6e:a7:48:70:36:cc:d8:d3:dd:13:ec:88:34:2e:
         ed:12:b1:dc:83:f9:3c:ff:8a:b3:74:1a:e3:ba:bc:3d:12:c9:
         a6:03:29:a8:03:3e:5c:bf:ac:bf:95:1b:d0:27:e0:0d:48:65:
         ea:64:e0:bb:fa:36:c7:19:ce:ee:eb:e1:c0:e5:e7:30:ff:83:
         1b:00:5f:ec
-----BEGIN CERTIFICATE-----
MIIDOjCCAiKgAwIBAgIBIjANBgkqhkiG9w0BAQsFADATMREwDwYDVQQDDAhDaGFu
Z2VNZTAeFw0xNjA1MDQwODE4MzlaFw0yNjA1MDIwODE4MzlaMBcxFTATBgNVBAMM
DGRlMi0xMWZlNDMzYjCCASIwDQYJKoZIhvcNAQEBBQADggEPADCCAQoCggEBAOgA
hE9AjOz031qIY1RFufHKNLRQa1I9zmegF39Dm9PxcwFx1MCnQz4Vst9Nwk/44pom
P9rCH3UsRCAxZbWRHbe6iQVHQs2esH5JDJOPebPaIS9++MvPnNrILQZoB4Yyk+fL
nHT4+FQRr7UX5yFIO+dTQHRDgYu8FR1TuIKpWoCkwNCaTcxhVqSwC4heMzuerD9k
iJ2z/HMAB8RGpLZKW0u/obsalPjEH+ur//B/de/llxon/PtXP11D7Q2zmiNYjUQQ
bnRJUu41BKyFubDLDN3mVhkXpOyf1P2x5ZwPdERChlVRN3XikoWTwg+fRl0VvUKO
8YrhIH8WGqhwFiaoZ80CAwEAAaOBlDCBkTAJBgNVHRMEAjAAMB0GA1UdDgQWBBRk
jdPTwy35SyssfZHXEDZXBM/YnjBDBgNVHSMEPDA6gBQwMEdffG3yu7bA/DIkIDOU
NzVwp6EXpBUwEzERMA8GA1UEAwwIQ2hhbmdlTWWCCQDykPSzNfuEkjATBgNVHSUE
DDAKBggrBgEFBQcDAjALBgNVHQ8EBAMCB4AwDQYJKoZIhvcNAQELBQADggEBADd8
pCNJKmRRsTvGhaasJKDYxP6Ze3cgK99LhAxcbgg1ad8wKhKg+xK2E4NaO9VKvNI9
5JcjH5fIJ7yXQWttMfFUqhlX7/CxEzn16ZVmRGdCreResdBOAINbcqiWdOUZuqtj
ZNP+g2lPabod5PZ/ZhuPWD2/Lm4KikqbsWa5crGIBYbvaHVHhSnfnHMXHtV3UkQS
M0+EvADzW3qADQoTNSXWPIwm8FEUk/FmmHtBOf5dmZUSRtvmK7Fup0hwNszY090T
7Ig0Lu0SsdyD+Tz/irN0GuO6vD0SyaYDKagDPly/rL+VG9An4A1IZepk4Lv6NscZ
zu7r4cDl5zD/gxsAX+w=
-----END CERTIFICATE-----
