Certificate:
    Data:
        Version: 3 (0x2)
        Serial Number: 36 (0x24)
    Signature Algorithm: sha256WithRSAEncryption
        Issuer: CN=ChangeMe
        Validity
            Not Before: May 13 09:54:54 2016 GMT
            Not After : May 11 09:54:54 2026 GMT
        Subject: CN=de2-712819ff
        Subject Public Key Info:
            Public Key Algorithm: rsaEncryption
                Public-Key: (2048 bit)
                Modulus:
                    00:c5:15:e6:87:d3:37:5e:28:fc:a0:7f:f8:c2:c1:
                    46:0d:52:ed:c1:a0:8c:27:80:6f:42:30:62:d8:f3:
                    b2:fb:14:6e:a4:e7:cc:cd:b7:bb:c9:52:73:67:29:
                    42:fb:8d:eb:4e:4c:de:3a:a4:93:9e:64:86:98:74:
                    82:2d:08:2f:43:30:52:9d:77:d1:91:08:f0:4c:d1:
                    b0:85:23:ce:b9:7d:7b:a0:db:a0:ee:45:bf:16:b1:
                    df:12:98:df:c7:95:a6:cf:80:7e:64:c0:70:e6:60:
                    15:c4:f6:a9:0b:b4:81:c4:b3:d4:70:85:94:39:2d:
                    9d:80:1a:67:b1:2d:1d:ac:99:60:20:87:01:93:5c:
                    95:df:9b:e4:1b:13:d8:18:74:5c:dc:2d:ac:7e:92:
                    3c:69:6d:b2:79:89:e3:d6:88:61:de:0d:2a:26:6e:
                    07:e5:bc:03:43:12:65:c8:0e:b1:eb:3b:91:df:5a:
                    1b:68:92:0f:31:15:9e:77:d0:54:32:5c:16:b5:88:
                    f2:5f:a6:c9:e1:db:19:9a:66:ee:c2:3d:93:16:e8:
                    bf:c4:14:20:2c:ef:08:53:a9:b8:fb:d7:ea:d4:e5:
                    36:61:27:d6:0d:9e:0a:51:db:39:71:aa:7f:b4:10:
                    74:59:cc:7a:46:a3:fd:2b:15:07:b5:5d:a2:17:35:
                    a8:65
                Exponent: 65537 (0x10001)
        X509v3 extensions:
            X509v3 Basic Constraints: 
                CA:FALSE
            X509v3 Subject Key Identifier: 
                4E:26:FE:90:C1:2C:B8:D4:43:38:C5:2A:62:A9:EF:F1:04:1F:AE:92
            X509v3 Authority Key Identifier: 
                keyid:30:30:47:5F:7C:6D:F2:BB:B6:C0:FC:32:24:20:33:94:37:35:70:A7
                DirName:/CN=ChangeMe
                serial:F2:90:F4:B3:35:FB:84:92

            X509v3 Extended Key Usage: 
                TLS Web Client Authentication
            X509v3 Key Usage: 
                Digital Signature
    Signature Algorithm: sha256WithRSAEncryption
         66:42:1c:ff:ed:4d:a7:32:cc:58:70:6b:15:f4:24:d2:2d:f2:
         2f:e0:2e:39:31:9b:8c:90:0e:01:3a:0f:5b:4c:de:ee:93:ac:
         ab:41:f2:4c:1f:b1:4a:20:00:98:0e:7f:90:80:8f:3d:50:22:
         da:8f:c9:2f:5a:3f:dd:30:5e:58:cf:6e:78:84:78:a1:6a:af:
         d0:ce:7a:4e:d3:47:b5:50:2c:ef:bd:82:a8:7a:d4:fe:a0:24:
         c8:dc:32:10:67:ee:1f:b0:0a:c4:34:c5:a6:a8:46:84:da:a0:
         80:d3:62:7a:09:ae:11:1a:af:03:b6:00:be:a3:a2:36:c2:eb:
         b9:1a:cb:7a:9d:e3:0c:30:66:ab:92:af:3d:68:88:39:f0:2a:
         15:7d:7a:28:60:c4:43:a0:6c:89:a4:b1:e8:46:9a:62:1c:15:
         bd:8a:e1:50:a8:18:d5:b7:46:6f:c7:a4:81:00:e5:26:f3:f8:
         34:6f:ab:d4:33:d6:a4:e9:6c:21:0b:b2:c4:df:79:ba:13:2e:
         14:81:b7:b7:c3:01:2a:cb:26:46:a6:f1:1e:ab:75:0a:64:0c:
         a0:eb:0b:24:19:b9:e9:99:d4:db:9b:70:0e:9d:a5:f6:ee:4d:
         16:a7:7f:5c:ad:2a:e3:d6:f1:e1:28:d2:47:57:7e:b8:83:b2:
         a9:b1:59:2d
-----BEGIN CERTIFICATE-----
MIIDOjCCAiKgAwIBAgIBJDANBgkqhkiG9w0BAQsFADATMREwDwYDVQQDDAhDaGFu
Z2VNZTAeFw0xNjA1MTMwOTU0NTRaFw0yNjA1MTEwOTU0NTRaMBcxFTATBgNVBAMM
DGRlMi03MTI4MTlmZjCCASIwDQYJKoZIhvcNAQEBBQADggEPADCCAQoCggEBAMUV
5ofTN14o/KB/+MLBRg1S7cGgjCeAb0IwYtjzsvsUbqTnzM23u8lSc2cpQvuN605M
3jqkk55khph0gi0IL0MwUp130ZEI8EzRsIUjzrl9e6DboO5Fvxax3xKY38eVps+A
fmTAcOZgFcT2qQu0gcSz1HCFlDktnYAaZ7EtHayZYCCHAZNcld+b5BsT2Bh0XNwt
rH6SPGltsnmJ49aIYd4NKiZuB+W8A0MSZcgOses7kd9aG2iSDzEVnnfQVDJcFrWI
8l+myeHbGZpm7sI9kxbov8QUICzvCFOpuPvX6tTlNmEn1g2eClHbOXGqf7QQdFnM
ekaj/SsVB7Vdohc1qGUCAwEAAaOBlDCBkTAJBgNVHRMEAjAAMB0GA1UdDgQWBBRO
Jv6QwSy41EM4xSpiqe/xBB+ukjBDBgNVHSMEPDA6gBQwMEdffG3yu7bA/DIkIDOU
NzVwp6EXpBUwEzERMA8GA1UEAwwIQ2hhbmdlTWWCCQDykPSzNfuEkjATBgNVHSUE
DDAKBggrBgEFBQcDAjALBgNVHQ8EBAMCB4AwDQYJKoZIhvcNAQELBQADggEBAGZC
HP/tTacyzFhwaxX0JNIt8i/gLjkxm4yQDgE6D1tM3u6TrKtB8kwfsUogAJgOf5CA
jz1QItqPyS9aP90wXljPbniEeKFqr9DOek7TR7VQLO+9gqh61P6gJMjcMhBn7h+w
CsQ0xaaoRoTaoIDTYnoJrhEarwO2AL6jojbC67kay3qd4wwwZquSrz1oiDnwKhV9
eihgxEOgbImksehGmmIcFb2K4VCoGNW3Rm/HpIEA5Sbz+DRvq9Qz1qTpbCELssTf
eboTLhSBt7fDASrLJkam8R6rdQpkDKDrCyQZuemZ1NubcA6dpfbuTRanf1ytKuPW
8eEo0kdXfriDsqmxWS0=
-----END CERTIFICATE-----
