Certificate:
    Data:
        Version: 3 (0x2)
        Serial Number: 37 (0x25)
    Signature Algorithm: sha256WithRSAEncryption
        Issuer: CN=ChangeMe
        Validity
            Not Before: May 16 19:04:16 2016 GMT
            Not After : May 14 19:04:16 2026 GMT
        Subject: CN=de2-c6b32de3
        Subject Public Key Info:
            Public Key Algorithm: rsaEncryption
                Public-Key: (2048 bit)
                Modulus:
                    00:b9:55:2d:bb:1c:8b:6e:33:5e:df:9b:bd:3b:24:
                    62:c6:7a:77:23:0a:a3:1c:49:d6:b9:36:43:c2:7b:
                    35:bd:2f:61:7d:a3:a6:89:62:c1:cf:83:27:a4:f7:
                    18:60:45:89:e2:3a:ab:a3:fc:6b:c5:08:45:0e:1a:
                    87:25:7a:f1:6e:d4:51:94:ae:85:a2:cb:07:98:bd:
                    e5:0f:7b:ab:a9:3f:b4:1c:0d:e8:10:e8:da:ee:f2:
                    4b:19:66:b5:35:90:e8:27:f3:5b:3d:8f:f7:77:ad:
                    d0:de:6e:f8:b1:e3:8f:2c:59:50:ca:23:7c:6f:c8:
                    08:36:37:90:38:e0:99:f9:67:a8:15:94:5e:71:f8:
                    22:00:fd:6f:e3:28:04:da:72:b4:a9:07:f5:14:9b:
                    e7:d9:09:cd:ab:7b:a9:df:81:e6:77:e7:fe:37:50:
                    f3:11:36:b8:40:60:90:63:d4:1c:31:a6:99:9c:41:
                    fb:87:a8:25:53:a6:e4:9c:ef:01:66:71:60:32:7e:
                    33:67:b8:99:ef:9b:40:f8:ad:76:08:68:39:c3:95:
                    38:8b:ce:c8:22:65:fe:39:9b:16:70:fa:83:4b:4a:
                    3d:0e:ab:67:74:67:1b:55:c4:1f:d9:48:a4:55:4d:
                    da:55:ec:fd:83:a7:93:96:8d:21:03:34:e8:11:01:
                    25:17
                Exponent: 65537 (0x10001)
        X509v3 extensions:
            X509v3 Basic Constraints: 
                CA:FALSE
            X509v3 Subject Key Identifier: 
                14:F5:31:DF:35:D6:72:F8:59:70:0B:DA:C8:D9:9D:A6:2B:F8:1A:55
            X509v3 Authority Key Identifier: 
                keyid:30:30:47:5F:7C:6D:F2:BB:B6:C0:FC:32:24:20:33:94:37:35:70:A7
                DirName:/CN=ChangeMe
                serial:F2:90:F4:B3:35:FB:84:92

            X509v3 Extended Key Usage: 
                TLS Web Client Authentication
            X509v3 Key Usage: 
                Digital Signature
    Signature Algorithm: sha256WithRSAEncryption
         9f:c7:98:ab:4a:7c:98:7a:10:ac:33:c4:0b:4d:98:38:6b:1a:
         00:52:7c:74:f6:3f:6c:fa:7e:14:ff:f1:25:8a:7b:80:5f:9a:
         cd:b9:74:1b:c7:99:26:7f:c4:f8:24:79:11:8c:52:33:58:e9:
         47:ff:8b:f7:7b:2b:62:cd:77:c8:84:75:50:46:6f:8a:99:49:
         2b:f6:71:c6:55:dc:91:96:ab:ac:37:2d:29:93:87:74:10:0e:
         01:fa:2f:56:14:99:c8:8d:47:f8:96:d0:dd:1c:d0:cd:5b:f2:
         21:77:9c:ca:f6:4a:96:23:aa:17:23:f9:74:0d:3a:ec:24:d2:
         eb:f7:95:99:ca:e7:fc:5d:e5:3a:a5:3c:91:2d:49:a3:98:e3:
         50:32:e7:ed:6e:70:b5:2e:c6:71:9b:2b:88:00:14:7c:25:94:
         bc:8f:a0:f8:88:db:b5:11:cc:3e:ef:7c:8b:58:82:06:f7:1a:
         96:c1:57:cd:61:5b:f0:a4:3c:06:c1:75:0f:aa:fc:a4:24:b4:
         c9:c2:e0:e9:9a:e8:3c:e1:4d:ed:10:03:57:0f:69:9c:2b:2f:
         3b:55:95:c4:0d:c1:d5:3f:03:9b:94:d2:db:5f:a4:12:b5:7e:
         06:b8:82:6f:7d:3d:6c:44:4a:0d:5c:e6:8b:39:e1:79:6c:ca:
         19:70:52:7f
-----BEGIN CERTIFICATE-----
MIIDOjCCAiKgAwIBAgIBJTANBgkqhkiG9w0BAQsFADATMREwDwYDVQQDDAhDaGFu
Z2VNZTAeFw0xNjA1MTYxOTA0MTZaFw0yNjA1MTQxOTA0MTZaMBcxFTATBgNVBAMM
DGRlMi1jNmIzMmRlMzCCASIwDQYJKoZIhvcNAQEBBQADggEPADCCAQoCggEBALlV
Lbsci24zXt+bvTskYsZ6dyMKoxxJ1rk2Q8J7Nb0vYX2jpoliwc+DJ6T3GGBFieI6
q6P8a8UIRQ4ahyV68W7UUZSuhaLLB5i95Q97q6k/tBwN6BDo2u7ySxlmtTWQ6Cfz
Wz2P93et0N5u+LHjjyxZUMojfG/ICDY3kDjgmflnqBWUXnH4IgD9b+MoBNpytKkH
9RSb59kJzat7qd+B5nfn/jdQ8xE2uEBgkGPUHDGmmZxB+4eoJVOm5JzvAWZxYDJ+
M2e4me+bQPitdghoOcOVOIvOyCJl/jmbFnD6g0tKPQ6rZ3RnG1XEH9lIpFVN2lXs
/YOnk5aNIQM06BEBJRcCAwEAAaOBlDCBkTAJBgNVHRMEAjAAMB0GA1UdDgQWBBQU
9THfNdZy+FlwC9rI2Z2mK/gaVTBDBgNVHSMEPDA6gBQwMEdffG3yu7bA/DIkIDOU
NzVwp6EXpBUwEzERMA8GA1UEAwwIQ2hhbmdlTWWCCQDykPSzNfuEkjATBgNVHSUE
DDAKBggrBgEFBQcDAjALBgNVHQ8EBAMCB4AwDQYJKoZIhvcNAQELBQADggEBAJ/H
mKtKfJh6EKwzxAtNmDhrGgBSfHT2P2z6fhT/8SWKe4Bfms25dBvHmSZ/xPgkeRGM
UjNY6Uf/i/d7K2LNd8iEdVBGb4qZSSv2ccZV3JGWq6w3LSmTh3QQDgH6L1YUmciN
R/iW0N0c0M1b8iF3nMr2SpYjqhcj+XQNOuwk0uv3lZnK5/xd5TqlPJEtSaOY41Ay
5+1ucLUuxnGbK4gAFHwllLyPoPiI27URzD7vfItYggb3GpbBV81hW/CkPAbBdQ+q
/KQktMnC4Oma6DzhTe0QA1cPaZwrLztVlcQNwdU/A5uU0ttfpBK1fga4gm99PWxE
Sg1c5os54XlsyhlwUn8=
-----END CERTIFICATE-----
