Certificate:
    Data:
        Version: 3 (0x2)
        Serial Number: 40 (0x28)
    Signature Algorithm: sha256WithRSAEncryption
        Issuer: CN=ChangeMe
        Validity
            Not Before: Jul 16 06:17:18 2016 GMT
            Not After : Jul 14 06:17:18 2026 GMT
        Subject: CN=de2-8c8a10cb
        Subject Public Key Info:
            Public Key Algorithm: rsaEncryption
                Public-Key: (2048 bit)
                Modulus:
                    00:c5:f6:21:01:73:a6:0e:16:e2:71:3a:cc:f1:d9:
                    38:d8:c0:3e:8a:a0:37:b3:9d:31:4b:9f:7f:95:7a:
                    b4:7b:5b:4a:c5:8e:34:05:f8:84:9e:5a:3c:94:d7:
                    63:42:b7:8e:17:9a:39:d2:f9:20:78:c3:12:21:bc:
                    52:83:c9:db:5c:2f:f2:59:be:e9:ba:22:65:fd:94:
                    a4:b9:d4:1f:6b:91:c5:c5:4f:4b:1e:1d:75:1d:9c:
                    74:4d:37:3b:fb:85:75:72:80:87:c2:b1:1e:21:ef:
                    1c:46:9a:87:07:ac:e8:3a:fe:35:11:f4:4b:a5:a9:
                    f8:ae:cc:e5:4d:6c:2a:92:dc:03:8e:f2:8e:4b:a3:
                    d8:6a:5e:4e:f0:87:08:27:48:94:ab:67:33:2b:a2:
                    4e:1b:b5:ba:8f:97:73:6c:bb:5a:fc:b9:90:6e:81:
                    75:e9:75:f5:bc:61:d7:65:ad:d0:6d:cc:50:ae:89:
                    5b:66:01:17:c0:e3:47:05:8d:83:51:34:3f:05:dd:
                    0b:f3:80:b1:b1:36:a1:97:96:63:70:04:83:e7:0a:
                    9b:58:29:a7:3b:c1:fe:9c:63:3e:7a:c1:8b:70:b3:
                    f5:48:7c:9d:e4:6a:7e:dc:52:ce:ad:61:7f:96:23:
                    d0:31:08:23:27:47:ec:d5:93:bd:46:9b:1e:ce:17:
                    69:03
                Exponent: 65537 (0x10001)
        X509v3 extensions:
            X509v3 Basic Constraints: 
                CA:FALSE
            X509v3 Subject Key Identifier: 
                4B:2F:C9:C7:12:CA:4F:C4:EC:56:09:C4:C4:E1:57:B6:46:2F:49:28
            X509v3 Authority Key Identifier: 
                keyid:30:30:47:5F:7C:6D:F2:BB:B6:C0:FC:32:24:20:33:94:37:35:70:A7
                DirName:/CN=ChangeMe
                serial:F2:90:F4:B3:35:FB:84:92

            X509v3 Extended Key Usage: 
                TLS Web Client Authentication
            X509v3 Key Usage: 
                Digital Signature
    Signature Algorithm: sha256WithRSAEncryption
         79:e8:61:f5:1e:88:c2:99:95:44:4d:29:a0:e6:62:fd:a5:d4:
         78:0c:2d:55:f2:cf:80:a1:35:27:26:9f:5a:88:c4:2e:d2:3f:
         d4:56:18:6c:2c:8c:0e:23:53:29:b4:83:c3:84:2f:56:f0:dd:
         3a:c5:52:6a:81:84:32:77:de:d6:44:d8:e9:78:ec:a1:6a:13:
         c4:3d:3d:94:51:09:29:01:9c:b1:20:5d:ff:9c:86:5d:ab:15:
         c3:1e:f4:cc:4d:b7:f4:13:05:d0:53:6e:b8:df:17:8e:30:68:
         42:2b:d5:a4:d6:90:ff:97:97:af:29:82:32:c8:ba:ca:9a:c2:
         d9:9e:a2:f7:60:e0:dc:0f:bf:f2:20:66:fb:e7:42:fb:ca:00:
         83:6a:bd:77:57:fd:93:e0:c1:23:35:07:c0:71:51:e5:6b:18:
         25:d1:77:35:b0:00:c6:c0:11:84:c4:69:20:30:db:08:5f:20:
         f6:60:94:db:53:14:aa:5d:80:ba:7b:76:d4:aa:cd:dd:61:0a:
         f7:fa:a5:c5:43:17:bc:db:05:1e:83:16:2d:e5:5e:a3:92:fb:
         bf:f7:f5:7b:eb:90:41:d7:22:1c:cf:93:44:0b:11:2d:97:52:
         46:5c:af:8b:85:0a:2b:1d:4f:33:ff:fd:63:4f:41:a7:3b:7e:
         24:ef:aa:47
-----BEGIN CERTIFICATE-----
MIIDOjCCAiKgAwIBAgIBKDANBgkqhkiG9w0BAQsFADATMREwDwYDVQQDDAhDaGFu
Z2VNZTAeFw0xNjA3MTYwNjE3MThaFw0yNjA3MTQwNjE3MThaMBcxFTATBgNVBAMM
DGRlMi04YzhhMTBjYjCCASIwDQYJKoZIhvcNAQEBBQADggEPADCCAQoCggEBAMX2
IQFzpg4W4nE6zPHZONjAPoqgN7OdMUuff5V6tHtbSsWONAX4hJ5aPJTXY0K3jhea
OdL5IHjDEiG8UoPJ21wv8lm+6boiZf2UpLnUH2uRxcVPSx4ddR2cdE03O/uFdXKA
h8KxHiHvHEaahwes6Dr+NRH0S6Wp+K7M5U1sKpLcA47yjkuj2GpeTvCHCCdIlKtn
MyuiThu1uo+Xc2y7Wvy5kG6Bdel19bxh12Wt0G3MUK6JW2YBF8DjRwWNg1E0PwXd
C/OAsbE2oZeWY3AEg+cKm1gppzvB/pxjPnrBi3Cz9Uh8neRqftxSzq1hf5Yj0DEI
IydH7NWTvUabHs4XaQMCAwEAAaOBlDCBkTAJBgNVHRMEAjAAMB0GA1UdDgQWBBRL
L8nHEspPxOxWCcTE4Ve2Ri9JKDBDBgNVHSMEPDA6gBQwMEdffG3yu7bA/DIkIDOU
NzVwp6EXpBUwEzERMA8GA1UEAwwIQ2hhbmdlTWWCCQDykPSzNfuEkjATBgNVHSUE
DDAKBggrBgEFBQcDAjALBgNVHQ8EBAMCB4AwDQYJKoZIhvcNAQELBQADggEBAHno
YfUeiMKZlURNKaDmYv2l1HgMLVXyz4ChNScmn1qIxC7SP9RWGGwsjA4jUym0g8OE
L1bw3TrFUmqBhDJ33tZE2Ol47KFqE8Q9PZRRCSkBnLEgXf+chl2rFcMe9MxNt/QT
BdBTbrjfF44waEIr1aTWkP+Xl68pgjLIusqawtmeovdg4NwPv/IgZvvnQvvKAINq
vXdX/ZPgwSM1B8BxUeVrGCXRdzWwAMbAEYTEaSAw2whfIPZglNtTFKpdgLp7dtSq
zd1hCvf6pcVDF7zbBR6DFi3lXqOS+7/39XvrkEHXIhzPk0QLES2XUkZcr4uFCisd
TzP//WNPQac7fiTvqkc=
-----END CERTIFICATE-----
