Certificate:
    Data:
        Version: 3 (0x2)
        Serial Number: 42 (0x2a)
    Signature Algorithm: sha256WithRSAEncryption
        Issuer: CN=ChangeMe
        Validity
            Not Before: Aug  2 05:48:31 2016 GMT
            Not After : Jul 31 05:48:31 2026 GMT
        Subject: CN=de2-bfe0cea8
        Subject Public Key Info:
            Public Key Algorithm: rsaEncryption
                Public-Key: (2048 bit)
                Modulus:
                    00:c7:1a:32:39:26:62:27:9d:5f:85:ca:a8:6a:5e:
                    c1:c1:40:16:98:fc:59:1d:60:e4:67:18:ce:37:c4:
                    48:0c:96:4c:70:a9:b0:57:ae:1c:25:ee:e8:b8:44:
                    8d:8f:42:b0:74:02:e5:7d:bb:c3:b3:dd:e4:22:90:
                    ba:67:dc:83:43:23:21:40:ab:c5:a9:7c:6f:24:64:
                    f2:82:a2:5b:6c:32:da:03:0f:04:ab:50:8b:d9:38:
                    fb:c9:c9:95:f1:84:82:0a:8a:1f:d2:7b:dc:67:67:
                    e2:1b:cf:c5:6a:c0:ac:78:52:f7:1f:9b:19:c2:e9:
                    e2:ce:38:e5:1b:92:1b:6e:e1:9c:3c:8c:7e:13:ee:
                    53:5b:a9:11:4e:11:cd:e5:39:a7:46:e3:38:cc:1c:
                    6b:d0:e9:ee:98:63:20:3e:ae:bc:2a:64:40:bc:e0:
                    27:0f:eb:19:43:46:df:83:4a:ff:6b:c7:4a:87:5e:
                    dd:94:01:59:bc:45:02:d0:6d:40:b9:03:ee:4f:cb:
                    b6:80:cd:3e:16:b3:44:b2:0b:19:89:fe:c9:04:5f:
                    2d:ac:51:14:a7:d9:77:aa:18:70:5d:a2:2a:5d:b1:
                    ad:16:9f:49:2c:f0:a0:8a:aa:34:b1:39:3c:19:86:
                    4e:19:f6:3b:c6:f2:9b:76:99:f4:ae:47:97:46:c0:
                    56:d5
                Exponent: 65537 (0x10001)
        X509v3 extensions:
            X509v3 Basic Constraints: 
                CA:FALSE
            X509v3 Subject Key Identifier: 
                C8:D2:02:FE:4F:BC:B2:E4:65:DD:63:04:EC:D1:F7:86:2E:0E:6B:54
            X509v3 Authority Key Identifier: 
                keyid:30:30:47:5F:7C:6D:F2:BB:B6:C0:FC:32:24:20:33:94:37:35:70:A7
                DirName:/CN=ChangeMe
                serial:F2:90:F4:B3:35:FB:84:92

            X509v3 Extended Key Usage: 
                TLS Web Client Authentication
            X509v3 Key Usage: 
                Digital Signature
    Signature Algorithm: sha256WithRSAEncryption
         ce:d9:9c:db:f4:f4:76:a3:5e:08:82:c2:cd:52:98:cd:20:5e:
         eb:90:79:8a:aa:9e:f1:9e:f0:d7:55:e3:e1:67:55:9b:75:0c:
         1d:e9:55:f7:77:ac:57:c5:5f:ae:cd:2f:2d:86:b1:b7:58:94:
         a1:14:80:6d:d3:d5:09:73:bd:47:a7:71:26:a1:75:10:5f:b0:
         23:ea:75:cb:70:ea:06:df:c8:34:88:05:ad:b1:ff:e9:6e:38:
         4d:95:3a:15:bd:20:47:54:a0:93:04:1e:34:77:60:49:bc:92:
         43:e4:32:f2:df:3f:f1:38:19:7d:42:cc:5c:ef:c6:4c:0a:bf:
         2d:41:19:a0:c3:02:d0:71:33:53:e2:71:5c:d1:60:66:14:cd:
         36:4a:3d:ba:86:f8:84:0a:9b:a7:c3:d9:af:a8:b6:72:75:79:
         12:00:31:70:ff:e2:41:d8:66:64:4c:8d:10:2e:8b:91:32:cf:
         0b:12:e0:42:c0:c3:c3:66:56:10:fe:66:6b:4b:c2:c8:f1:1a:
         5c:3c:d7:57:e6:da:e7:a3:3e:d8:eb:95:14:76:b1:e1:6f:7a:
         59:36:b0:1b:83:4f:a6:bf:37:f0:2b:06:70:45:bd:37:4a:cd:
         a3:0b:eb:61:c9:40:79:7b:91:44:e7:cd:39:d0:e0:bb:9e:7b:
         b6:1d:fd:09
-----BEGIN CERTIFICATE-----
MIIDOjCCAiKgAwIBAgIBKjANBgkqhkiG9w0BAQsFADATMREwDwYDVQQDDAhDaGFu
Z2VNZTAeFw0xNjA4MDIwNTQ4MzFaFw0yNjA3MzEwNTQ4MzFaMBcxFTATBgNVBAMM
DGRlMi1iZmUwY2VhODCCASIwDQYJKoZIhvcNAQEBBQADggEPADCCAQoCggEBAMca
MjkmYiedX4XKqGpewcFAFpj8WR1g5GcYzjfESAyWTHCpsFeuHCXu6LhEjY9CsHQC
5X27w7Pd5CKQumfcg0MjIUCrxal8byRk8oKiW2wy2gMPBKtQi9k4+8nJlfGEggqK
H9J73Gdn4hvPxWrArHhS9x+bGcLp4s445RuSG27hnDyMfhPuU1upEU4RzeU5p0bj
OMwca9Dp7phjID6uvCpkQLzgJw/rGUNG34NK/2vHSode3ZQBWbxFAtBtQLkD7k/L
toDNPhazRLILGYn+yQRfLaxRFKfZd6oYcF2iKl2xrRafSSzwoIqqNLE5PBmGThn2
O8bym3aZ9K5Hl0bAVtUCAwEAAaOBlDCBkTAJBgNVHRMEAjAAMB0GA1UdDgQWBBTI
0gL+T7yy5GXdYwTs0feGLg5rVDBDBgNVHSMEPDA6gBQwMEdffG3yu7bA/DIkIDOU
NzVwp6EXpBUwEzERMA8GA1UEAwwIQ2hhbmdlTWWCCQDykPSzNfuEkjATBgNVHSUE
DDAKBggrBgEFBQcDAjALBgNVHQ8EBAMCB4AwDQYJKoZIhvcNAQELBQADggEBAM7Z
nNv09HajXgiCws1SmM0gXuuQeYqqnvGe8NdV4+FnVZt1DB3pVfd3rFfFX67NLy2G
sbdYlKEUgG3T1QlzvUencSahdRBfsCPqdctw6gbfyDSIBa2x/+luOE2VOhW9IEdU
oJMEHjR3YEm8kkPkMvLfP/E4GX1CzFzvxkwKvy1BGaDDAtBxM1PicVzRYGYUzTZK
PbqG+IQKm6fD2a+otnJ1eRIAMXD/4kHYZmRMjRAui5EyzwsS4ELAw8NmVhD+ZmtL
wsjxGlw811fm2uejPtjrlRR2seFvelk2sBuDT6a/N/ArBnBFvTdKzaML62HJQHl7
kUTnzTnQ4Luee7Yd/Qk=
-----END CERTIFICATE-----
