Certificate:
    Data:
        Version: 3 (0x2)
        Serial Number: 1 (0x1)
    Signature Algorithm: sha256WithRSAEncryption
        Issuer: CN=Easy-RSA CA
        Validity
            Not Before: Aug 29 18:57:05 2016 GMT
            Not After : Aug 27 18:57:05 2026 GMT
        Subject: CN=server
        Subject Public Key Info:
            Public Key Algorithm: rsaEncryption
                Public-Key: (2048 bit)
                Modulus:
                    00:b1:f2:05:e5:0d:01:f1:4a:15:39:ad:6c:f0:ad:
                    e3:38:8f:a2:08:de:79:04:24:b4:cf:39:71:27:bd:
                    5a:2d:cd:22:1b:ee:82:73:1b:40:90:7d:3e:91:5d:
                    32:b5:b8:e8:25:b5:f7:38:5f:2a:8d:35:1b:5a:cc:
                    44:79:eb:84:f3:f5:73:1e:38:95:47:bc:86:ce:8c:
                    9d:f1:b5:89:17:0e:b9:22:9b:c7:97:e0:95:c6:32:
                    bb:c7:95:60:b8:da:bf:9d:08:fb:2f:13:56:ba:ab:
                    fa:82:cb:83:63:cd:0b:a4:16:64:35:1d:d2:79:9e:
                    0e:eb:b9:ae:5e:aa:a3:3f:a7:17:4a:01:80:10:5d:
                    b8:7e:fb:b6:3d:cb:41:e7:db:1e:f2:c6:95:cb:8e:
                    ab:c5:d2:77:d9:68:02:6f:06:2c:33:3f:66:fd:fd:
                    a1:51:76:7c:03:13:75:76:ce:6f:b3:74:a7:ac:50:
                    94:45:75:87:63:6f:fa:3a:8b:5f:a3:f9:25:3b:85:
                    9f:39:35:5c:7a:cf:ae:16:82:73:b8:4a:be:a1:62:
                    5c:8e:60:a5:f0:81:89:8f:68:d2:0f:c1:32:09:35:
                    8b:d7:7d:89:25:9b:e9:09:cc:a3:01:2b:55:6d:8a:
                    3a:69:22:a4:92:2d:83:7c:fb:8e:29:2e:dc:f0:a8:
                    5e:6b
                Exponent: 65537 (0x10001)
        X509v3 extensions:
            X509v3 Basic Constraints: 
                CA:FALSE
            X509v3 Subject Key Identifier: 
                D5:F1:59:01:24:E7:2D:7C:4C:A8:A6:43:90:F9:A2:98:86:67:64:44
            X509v3 Authority Key Identifier: 
                keyid:33:DC:1D:86:A5:F6:23:9C:FA:1A:5E:03:E8:0C:A5:F5:A1:36:67:DE
                DirName:/CN=Easy-RSA CA
                serial:CA:CB:A8:23:54:48:1D:4F

            X509v3 Extended Key Usage: 
                TLS Web Server Authentication
            X509v3 Key Usage: 
                Digital Signature, Key Encipherment
    Signature Algorithm: sha256WithRSAEncryption
         91:c0:1a:d5:5c:90:09:68:44:f7:e1:04:fe:ed:d7:90:5c:2f:
         ae:8f:2e:a0:74:b8:33:ee:59:ab:12:4c:96:b7:d1:26:15:bc:
         36:64:dc:03:69:ce:48:c3:cc:15:68:20:60:7c:50:e2:c6:1d:
         3d:af:63:91:a0:06:61:cd:bd:7b:70:57:65:3d:24:59:09:ea:
         e6:d7:9c:c2:01:aa:bd:57:50:2b:43:28:c3:f9:53:69:d3:a5:
         f7:25:24:71:7f:fd:09:0b:07:11:e1:00:9d:37:43:a6:b5:96:
         28:ca:02:48:12:16:b8:05:a8:1f:e3:df:e0:11:38:2e:87:aa:
         92:67:ed:d5:d0:3e:67:6f:d6:c2:f8:95:6c:3c:37:e1:e2:31:
         6b:11:db:0e:d4:e0:d4:25:82:19:68:62:ce:8c:3c:36:0e:2f:
         71:07:78:80:33:0e:ed:54:f7:00:f3:70:48:1a:19:8f:5e:c7:
         a4:43:71:60:c4:06:4c:b7:03:3b:02:bf:93:ba:24:b2:61:f9:
         5e:c8:7b:78:5a:63:9e:96:fe:12:e2:f7:bf:f3:31:f0:43:48:
         a0:4c:af:c7:c3:97:33:14:c8:36:c8:7b:4e:ca:61:f5:c5:5b:
         84:e0:8a:43:70:d9:49:0f:7e:09:af:e6:d7:bd:0d:f9:10:d2:
         e1:57:66:6a
-----BEGIN CERTIFICATE-----
MIIDOjCCAiKgAwIBAgIBATANBgkqhkiG9w0BAQsFADAWMRQwEgYDVQQDEwtFYXN5
LVJTQSBDQTAeFw0xNjA4MjkxODU3MDVaFw0yNjA4MjcxODU3MDVaMBExDzANBgNV
BAMTBnNlcnZlcjCCASIwDQYJKoZIhvcNAQEBBQADggEPADCCAQoCggEBALHyBeUN
AfFKFTmtbPCt4ziPogjeeQQktM85cSe9Wi3NIhvugnMbQJB9PpFdMrW46CW19zhf
Ko01G1rMRHnrhPP1cx44lUe8hs6MnfG1iRcOuSKbx5fglcYyu8eVYLjav50I+y8T
Vrqr+oLLg2PNC6QWZDUd0nmeDuu5rl6qoz+nF0oBgBBduH77tj3LQefbHvLGlcuO
q8XSd9loAm8GLDM/Zv39oVF2fAMTdXbOb7N0p6xQlEV1h2Nv+jqLX6P5JTuFnzk1
XHrPrhaCc7hKvqFiXI5gpfCBiY9o0g/BMgk1i9d9iSWb6QnMowErVW2KOmkipJIt
g3z7jiku3PCoXmsCAwEAAaOBlzCBlDAJBgNVHRMEAjAAMB0GA1UdDgQWBBTV8VkB
JOctfEyopkOQ+aKYhmdkRDBGBgNVHSMEPzA9gBQz3B2GpfYjnPoaXgPoDKX1oTZn
3qEapBgwFjEUMBIGA1UEAxMLRWFzeS1SU0EgQ0GCCQDKy6gjVEgdTzATBgNVHSUE
DDAKBggrBgEFBQcDATALBgNVHQ8EBAMCBaAwDQYJKoZIhvcNAQELBQADggEBAJHA
GtVckAloRPfhBP7t15BcL66PLqB0uDPuWasSTJa30SYVvDZk3ANpzkjDzBVoIGB8
UOLGHT2vY5GgBmHNvXtwV2U9JFkJ6ubXnMIBqr1XUCtDKMP5U2nTpfclJHF//QkL
BxHhAJ03Q6a1lijKAkgSFrgFqB/j3+AROC6HqpJn7dXQPmdv1sL4lWw8N+HiMWsR
2w7U4NQlghloYs6MPDYOL3EHeIAzDu1U9wDzcEgaGY9ex6RDcWDEBky3AzsCv5O6
JLJh+V7Ie3haY56W/hLi97/zMfBDSKBMr8fDlzMUyDbIe07KYfXFW4TgikNw2UkP
fgmv5te9DfkQ0uFXZmo=
-----END CERTIFICATE-----
