Certificate:
    Data:
        Version: 3 (0x2)
        Serial Number: 2 (0x2)
    Signature Algorithm: sha256WithRSAEncryption
        Issuer: CN=Easy-RSA CA
        Validity
            Not Before: Aug 29 18:59:02 2016 GMT
            Not After : Feb 25 18:59:02 2017 GMT
        Subject: CN=test1
        Subject Public Key Info:
            Public Key Algorithm: rsaEncryption
                Public-Key: (2048 bit)
                Modulus:
                    00:d1:44:28:7e:d2:36:25:e2:47:3d:3d:87:fa:34:
                    77:a1:3f:24:24:c8:a1:ff:5f:da:56:34:c0:08:58:
                    42:a7:2e:12:e3:f5:a2:4c:e6:e5:24:6e:60:10:cc:
                    84:23:f0:c5:00:09:cb:0a:7a:85:53:fd:75:17:e3:
                    4f:34:99:fd:33:b0:d3:24:c8:f7:a7:69:2d:64:ad:
                    09:1c:9b:88:d0:72:48:16:64:89:1a:91:4f:82:bd:
                    73:2c:50:58:eb:8a:62:36:2c:50:88:60:b9:23:94:
                    d8:9b:fb:b0:97:25:9e:b4:43:40:d6:96:1f:9f:3d:
                    54:3a:f8:30:2d:50:25:87:21:98:25:1c:fb:e2:14:
                    12:02:f6:38:b3:30:90:4f:08:55:98:9f:32:07:11:
                    46:a2:d3:18:d3:32:9a:35:07:a3:3d:d5:4c:d0:15:
                    6a:c7:b8:60:9f:36:19:a1:d8:b6:ca:60:a7:66:8a:
                    a1:7a:be:52:84:29:3b:39:76:b2:a8:77:2d:92:d9:
                    6d:7e:13:b2:e8:b5:ce:12:11:30:78:85:fd:6d:38:
                    13:c7:e9:5b:c3:93:fe:cf:b7:f0:35:f2:9f:00:46:
                    95:95:19:3a:f0:00:b5:e6:a6:f8:ad:a6:9f:c8:6c:
                    36:40:fa:c5:ee:c5:5c:4a:07:5d:71:ad:ed:2d:75:
                    c8:91
                Exponent: 65537 (0x10001)
        X509v3 extensions:
            X509v3 Basic Constraints: 
                CA:FALSE
            X509v3 Subject Key Identifier: 
                F9:2E:BA:3B:AE:5F:D7:35:3A:C3:42:33:B7:97:DF:67:58:CB:BF:63
            X509v3 Authority Key Identifier: 
                keyid:33:DC:1D:86:A5:F6:23:9C:FA:1A:5E:03:E8:0C:A5:F5:A1:36:67:DE
                DirName:/CN=Easy-RSA CA
                serial:CA:CB:A8:23:54:48:1D:4F

            X509v3 Extended Key Usage: 
                TLS Web Client Authentication
            X509v3 Key Usage: 
                Digital Signature
    Signature Algorithm: sha256WithRSAEncryption
         9a:ff:6c:d3:91:38:48:60:9e:3e:c8:2a:2a:7c:30:8d:09:db:
         e6:20:20:51:5c:c0:d4:b3:dd:15:00:c7:1f:38:74:62:c0:4a:
         c2:66:aa:d6:40:0b:11:14:31:51:c7:ab:84:6e:82:27:d6:2d:
         d9:fb:cd:2e:a2:23:a5:18:5e:f4:69:ea:a8:49:3c:dd:bb:dd:
         78:7a:a1:dd:0c:9c:e7:61:c3:b4:1f:93:42:fe:31:e9:5e:bf:
         ae:08:7a:60:1f:19:b9:63:6a:c1:e8:47:6c:b1:03:64:12:b5:
         f0:5f:a6:5e:eb:7e:7c:df:85:bb:37:aa:26:1b:0d:37:97:40:
         5b:e7:35:69:43:a6:a2:98:fc:43:50:45:c5:b8:20:72:58:9e:
         67:9a:6e:4e:60:fa:f6:82:98:14:24:c0:f9:ea:08:19:79:93:
         3e:01:6e:7a:86:17:f0:cc:df:58:ff:40:e7:44:7b:5c:74:ac:
         c4:c8:b4:ea:66:af:be:29:b9:7b:5f:8f:d8:7b:d8:c0:35:72:
         05:83:f1:96:80:b5:50:df:c6:09:0d:30:eb:6e:55:e6:28:ed:
         5a:6a:c2:a4:fe:f8:55:b3:57:e1:ca:c7:d6:00:81:b4:76:a5:
         13:e6:7a:0b:6b:0a:fc:2c:65:5b:ee:a1:1b:d3:ca:a6:b9:7b:
         29:9c:ef:48
-----BEGIN CERTIFICATE-----
MIIDOTCCAiGgAwIBAgIBAjANBgkqhkiG9w0BAQsFADAWMRQwEgYDVQQDEwtFYXN5
LVJTQSBDQTAeFw0xNjA4MjkxODU5MDJaFw0xNzAyMjUxODU5MDJaMBAxDjAMBgNV
BAMTBXRlc3QxMIIBIjANBgkqhkiG9w0BAQEFAAOCAQ8AMIIBCgKCAQEA0UQoftI2
JeJHPT2H+jR3oT8kJMih/1/aVjTACFhCpy4S4/WiTOblJG5gEMyEI/DFAAnLCnqF
U/11F+NPNJn9M7DTJMj3p2ktZK0JHJuI0HJIFmSJGpFPgr1zLFBY64piNixQiGC5
I5TYm/uwlyWetENA1pYfnz1UOvgwLVAlhyGYJRz74hQSAvY4szCQTwhVmJ8yBxFG
otMY0zKaNQejPdVM0BVqx7hgnzYZodi2ymCnZoqher5ShCk7OXayqHctktltfhOy
6LXOEhEweIX9bTgTx+lbw5P+z7fwNfKfAEaVlRk68AC15qb4raafyGw2QPrF7sVc
Sgddca3tLXXIkQIDAQABo4GXMIGUMAkGA1UdEwQCMAAwHQYDVR0OBBYEFPkuujuu
X9c1OsNCM7eX32dYy79jMEYGA1UdIwQ/MD2AFDPcHYal9iOc+hpeA+gMpfWhNmfe
oRqkGDAWMRQwEgYDVQQDEwtFYXN5LVJTQSBDQYIJAMrLqCNUSB1PMBMGA1UdJQQM
MAoGCCsGAQUFBwMCMAsGA1UdDwQEAwIHgDANBgkqhkiG9w0BAQsFAAOCAQEAmv9s
05E4SGCePsgqKnwwjQnb5iAgUVzA1LPdFQDHHzh0YsBKwmaq1kALERQxUcerhG6C
J9Yt2fvNLqIjpRhe9GnqqEk83bvdeHqh3Qyc52HDtB+TQv4x6V6/rgh6YB8ZuWNq
wehHbLEDZBK18F+mXut+fN+FuzeqJhsNN5dAW+c1aUOmopj8Q1BFxbggclieZ5pu
TmD69oKYFCTA+eoIGXmTPgFueoYX8MzfWP9A50R7XHSsxMi06mavvim5e1+P2HvY
wDVyBYPxloC1UN/GCQ0w625V5ijtWmrCpP74VbNX4crH1gCBtHalE+Z6C2sK/Cxl
W+6hG9PKprl7KZzvSA==
-----END CERTIFICATE-----
