Certificate:
    Data:
        Version: 3 (0x2)
        Serial Number: 3 (0x3)
    Signature Algorithm: sha256WithRSAEncryption
        Issuer: CN=Easy-RSA CA
        Validity
            Not Before: Aug 29 20:29:02 2016 GMT
            Not After : Nov 27 20:29:02 2016 GMT
        Subject: CN=test
        Subject Public Key Info:
            Public Key Algorithm: rsaEncryption
                Public-Key: (2048 bit)
                Modulus:
                    00:a5:28:84:a7:8e:ae:77:09:51:be:62:cd:ad:36:
                    7a:eb:20:c0:1c:39:f6:4e:8c:f5:90:c3:4d:d0:97:
                    e8:50:bc:45:a9:87:a8:d1:08:72:c6:f3:a9:22:62:
                    ab:39:47:a4:a8:3d:a9:f0:c8:a4:ad:7c:fe:1f:23:
                    f4:24:3a:12:1e:8e:b9:da:cf:4b:d9:3a:12:5d:db:
                    7c:f7:03:32:81:e5:22:da:f9:38:47:e8:38:ac:fd:
                    42:5a:62:79:e4:4d:c2:26:83:93:31:ae:db:04:0b:
                    78:8e:5f:34:4b:e9:05:b6:1f:21:5c:18:b5:40:ad:
                    7b:93:6c:c3:b6:f4:25:de:54:29:4f:38:98:ba:d3:
                    88:c0:23:a5:dc:80:37:33:63:fb:67:75:f2:01:26:
                    de:3c:46:a6:bd:64:34:e8:2f:0c:6a:ff:72:60:5a:
                    d5:12:4a:7e:2b:1a:c7:1d:a5:59:48:0f:a7:a9:d9:
                    c7:4c:c3:65:8a:ca:91:a1:fc:94:8f:e8:ad:59:fd:
                    84:89:5d:9e:93:41:95:1f:21:8e:e2:40:d6:35:0f:
                    bc:20:6a:c5:d2:96:b0:23:0e:dc:0b:a5:b7:5e:85:
                    f3:e1:20:4f:91:5f:16:af:63:e8:95:98:12:d4:1b:
                    16:6f:c5:89:6e:02:3d:2b:51:3b:d0:f5:47:7c:0f:
                    0d:15
                Exponent: 65537 (0x10001)
        X509v3 extensions:
            X509v3 Basic Constraints: 
                CA:FALSE
            X509v3 Subject Key Identifier: 
                58:CD:B8:78:B3:AC:4F:9D:9E:F3:63:53:17:F2:8C:0C:C5:D9:85:9C
            X509v3 Authority Key Identifier: 
                keyid:33:DC:1D:86:A5:F6:23:9C:FA:1A:5E:03:E8:0C:A5:F5:A1:36:67:DE
                DirName:/CN=Easy-RSA CA
                serial:CA:CB:A8:23:54:48:1D:4F

            X509v3 Extended Key Usage: 
                TLS Web Client Authentication
            X509v3 Key Usage: 
                Digital Signature
    Signature Algorithm: sha256WithRSAEncryption
         16:19:8b:15:4c:c2:20:5a:c5:de:7b:f7:2f:ec:32:44:75:b0:
         a5:e5:f7:ad:c4:31:f7:4a:d2:d4:5b:61:ab:91:05:dc:e0:b3:
         e9:59:53:f8:33:47:02:aa:26:b9:ce:b9:dd:43:19:84:3b:61:
         9d:9b:65:95:31:4d:aa:62:81:2d:76:e5:bd:13:6f:d4:8f:e8:
         64:e0:bd:8c:bf:13:08:99:2c:77:e7:a9:66:81:36:11:e8:cf:
         48:2f:7a:0e:2e:d6:82:7c:89:bd:05:7e:6e:e4:4d:09:e8:b4:
         00:c0:c4:e0:12:e4:09:5a:f4:41:70:a3:5a:82:17:45:85:86:
         c4:93:77:16:93:18:33:5b:3a:80:58:2d:fe:8a:0b:f2:7c:63:
         41:7d:b9:f3:98:22:97:97:f9:c8:a3:f8:6d:66:a7:b3:3d:82:
         e7:c5:cb:dc:1d:df:16:11:69:e4:7b:e2:04:ac:ac:a4:2e:d9:
         2a:a2:f5:b0:d5:fa:f7:99:b3:31:23:8e:e1:7f:e4:d9:75:8d:
         65:0a:f6:94:0b:0d:92:4a:e0:b3:80:eb:db:15:73:30:5b:77:
         3b:01:c2:d9:1e:45:48:dd:ed:13:af:c4:fb:fa:ab:d3:fa:1e:
         d9:0f:2a:86:59:f2:48:46:f2:1c:8a:3d:8b:22:c8:1e:3d:0e:
         b1:04:bf:7f
-----BEGIN CERTIFICATE-----
MIIDODCCAiCgAwIBAgIBAzANBgkqhkiG9w0BAQsFADAWMRQwEgYDVQQDEwtFYXN5
LVJTQSBDQTAeFw0xNjA4MjkyMDI5MDJaFw0xNjExMjcyMDI5MDJaMA8xDTALBgNV
BAMTBHRlc3QwggEiMA0GCSqGSIb3DQEBAQUAA4IBDwAwggEKAoIBAQClKISnjq53
CVG+Ys2tNnrrIMAcOfZOjPWQw03Ql+hQvEWph6jRCHLG86kiYqs5R6SoPanwyKSt
fP4fI/QkOhIejrnaz0vZOhJd23z3AzKB5SLa+ThH6Dis/UJaYnnkTcImg5MxrtsE
C3iOXzRL6QW2HyFcGLVArXuTbMO29CXeVClPOJi604jAI6XcgDczY/tndfIBJt48
Rqa9ZDToLwxq/3JgWtUSSn4rGscdpVlID6ep2cdMw2WKypGh/JSP6K1Z/YSJXZ6T
QZUfIY7iQNY1D7wgasXSlrAjDtwLpbdehfPhIE+RXxavY+iVmBLUGxZvxYluAj0r
UTvQ9Ud8Dw0VAgMBAAGjgZcwgZQwCQYDVR0TBAIwADAdBgNVHQ4EFgQUWM24eLOs
T52e82NTF/KMDMXZhZwwRgYDVR0jBD8wPYAUM9wdhqX2I5z6Gl4D6Ayl9aE2Z96h
GqQYMBYxFDASBgNVBAMTC0Vhc3ktUlNBIENBggkAysuoI1RIHU8wEwYDVR0lBAww
CgYIKwYBBQUHAwIwCwYDVR0PBAQDAgeAMA0GCSqGSIb3DQEBCwUAA4IBAQAWGYsV
TMIgWsXee/cv7DJEdbCl5fetxDH3StLUW2GrkQXc4LPpWVP4M0cCqia5zrndQxmE
O2Gdm2WVMU2qYoEtduW9E2/Uj+hk4L2MvxMImSx356lmgTYR6M9IL3oOLtaCfIm9
BX5u5E0J6LQAwMTgEuQJWvRBcKNaghdFhYbEk3cWkxgzWzqAWC3+igvyfGNBfbnz
mCKXl/nIo/htZqezPYLnxcvcHd8WEWnke+IErKykLtkqovWw1fr3mbMxI47hf+TZ
dY1lCvaUCw2SSuCzgOvbFXMwW3c7AcLZHkVI3e0Tr8T7+qvT+h7ZDyqGWfJIRvIc
ij2LIsgePQ6xBL9/
-----END CERTIFICATE-----
