Certificate:
    Data:
        Version: 3 (0x2)
        Serial Number: 29 (0x1d)
    Signature Algorithm: sha256WithRSAEncryption
        Issuer: CN=ChangeMe
        Validity
            Not Before: Apr 19 21:52:42 2016 GMT
            Not After : Apr 17 21:52:42 2026 GMT
        Subject: CN=d5d35ee7
        Subject Public Key Info:
            Public Key Algorithm: rsaEncryption
                Public-Key: (2048 bit)
                Modulus:
                    00:a9:ad:b0:0b:e2:65:72:e1:97:6c:53:46:7b:2f:
                    39:38:d0:6b:b8:44:66:2f:f9:1d:1b:38:ab:2d:87:
                    4c:de:49:94:dc:58:78:8c:06:92:6b:e7:4c:6b:9c:
                    4d:0e:94:9a:a5:d6:77:17:31:62:3d:77:23:77:ae:
                    5d:57:42:24:14:61:93:2a:54:89:e1:33:79:52:24:
                    67:3b:b5:d8:7a:4f:0e:2c:de:7a:69:8b:ae:b8:cb:
                    98:d9:24:db:a0:62:88:2c:4f:9b:b9:8c:e7:24:5e:
                    c2:0b:57:05:c6:63:15:42:d8:48:92:bb:4f:ab:ca:
                    65:ec:f9:13:42:09:fe:d2:6d:31:70:db:6d:ea:09:
                    15:00:da:10:73:8c:0b:08:16:e8:1b:24:81:08:38:
                    4e:1f:cf:d8:a5:70:40:02:85:b8:b9:6d:cc:2d:8a:
                    48:5e:41:50:83:e9:3f:98:4a:4d:a3:7b:95:9c:57:
                    2d:94:f9:18:db:2c:9f:9f:2a:9d:8a:7b:58:0f:2f:
                    0b:f1:04:c6:6f:3a:81:84:10:ba:fe:06:87:db:50:
                    4d:46:51:3c:e3:98:31:1e:a4:1e:9f:39:f4:92:91:
                    e2:ce:da:0a:d7:af:3f:5b:ca:fc:f6:a4:a8:c2:d6:
                    95:5e:2c:7b:75:5c:b1:eb:ab:29:fc:d3:a3:a0:48:
                    2f:af
                Exponent: 65537 (0x10001)
        X509v3 extensions:
            X509v3 Basic Constraints: 
                CA:FALSE
            X509v3 Subject Key Identifier: 
                4F:FC:91:0C:09:38:6F:0B:4B:D5:B5:88:13:A7:A3:D3:A4:E4:9A:42
            X509v3 Authority Key Identifier: 
                keyid:30:30:47:5F:7C:6D:F2:BB:B6:C0:FC:32:24:20:33:94:37:35:70:A7
                DirName:/CN=ChangeMe
                serial:F2:90:F4:B3:35:FB:84:92

            X509v3 Extended Key Usage: 
                TLS Web Client Authentication
            X509v3 Key Usage: 
                Digital Signature
    Signature Algorithm: sha256WithRSAEncryption
         9c:88:b9:c6:9a:8a:1d:2a:7f:3e:1c:66:ea:20:d8:3e:d8:0e:
         47:af:44:63:80:43:0f:f4:11:6d:b3:4b:25:ea:df:45:c2:7b:
         99:a5:b7:c0:f5:3d:b8:4b:a1:ea:45:8b:e1:aa:37:d3:29:7b:
         d0:22:3e:b8:0c:d9:26:04:72:72:3e:15:31:07:75:c6:81:ce:
         87:04:c2:8f:07:81:6b:c3:5f:d4:5d:c4:a7:90:c2:92:d5:c5:
         1e:35:f7:36:31:c7:59:48:58:90:e2:0d:7e:eb:b6:26:a1:bd:
         91:56:ec:a5:42:af:ef:d1:50:9e:94:fc:03:97:95:54:3e:0d:
         3a:00:54:44:06:69:0b:ee:ea:ac:71:c4:9e:15:63:bb:06:7b:
         20:f2:14:1b:40:df:49:c0:a0:5d:63:77:b2:b6:73:06:0f:d9:
         31:82:09:17:41:bd:43:46:cd:d8:fe:2c:e7:41:49:cd:2f:e6:
         cd:58:16:f4:a7:fe:80:44:5e:7a:32:fc:2d:65:ec:0f:2c:f0:
         9c:ed:ec:95:6d:8d:36:8f:c3:52:30:27:59:5e:9b:ec:c4:99:
         ee:88:39:75:14:19:23:a4:20:87:36:10:11:71:01:62:12:aa:
         bc:e4:0e:7e:c5:72:b3:69:a5:67:5b:bb:74:dd:d5:01:e6:b3:
         a1:3a:35:78
-----BEGIN CERTIFICATE-----
MIIDNjCCAh6gAwIBAgIBHTANBgkqhkiG9w0BAQsFADATMREwDwYDVQQDDAhDaGFu
Z2VNZTAeFw0xNjA0MTkyMTUyNDJaFw0yNjA0MTcyMTUyNDJaMBMxETAPBgNVBAMM
CGQ1ZDM1ZWU3MIIBIjANBgkqhkiG9w0BAQEFAAOCAQ8AMIIBCgKCAQEAqa2wC+Jl
cuGXbFNGey85ONBruERmL/kdGzirLYdM3kmU3Fh4jAaSa+dMa5xNDpSapdZ3FzFi
PXcjd65dV0IkFGGTKlSJ4TN5UiRnO7XYek8OLN56aYuuuMuY2STboGKILE+buYzn
JF7CC1cFxmMVQthIkrtPq8pl7PkTQgn+0m0xcNtt6gkVANoQc4wLCBboGySBCDhO
H8/YpXBAAoW4uW3MLYpIXkFQg+k/mEpNo3uVnFctlPkY2yyfnyqdintYDy8L8QTG
bzqBhBC6/gaH21BNRlE845gxHqQenzn0kpHiztoK168/W8r89qSowtaVXix7dVyx
66sp/NOjoEgvrwIDAQABo4GUMIGRMAkGA1UdEwQCMAAwHQYDVR0OBBYEFE/8kQwJ
OG8LS9W1iBOno9Ok5JpCMEMGA1UdIwQ8MDqAFDAwR198bfK7tsD8MiQgM5Q3NXCn
oRekFTATMREwDwYDVQQDDAhDaGFuZ2VNZYIJAPKQ9LM1+4SSMBMGA1UdJQQMMAoG
CCsGAQUFBwMCMAsGA1UdDwQEAwIHgDANBgkqhkiG9w0BAQsFAAOCAQEAnIi5xpqK
HSp/Phxm6iDYPtgOR69EY4BDD/QRbbNLJerfRcJ7maW3wPU9uEuh6kWL4ao30yl7
0CI+uAzZJgRycj4VMQd1xoHOhwTCjweBa8Nf1F3Ep5DCktXFHjX3NjHHWUhYkOIN
fuu2JqG9kVbspUKv79FQnpT8A5eVVD4NOgBURAZpC+7qrHHEnhVjuwZ7IPIUG0Df
ScCgXWN3srZzBg/ZMYIJF0G9Q0bN2P4s50FJzS/mzVgW9Kf+gEReejL8LWXsDyzw
nO3slW2NNo/DUjAnWV6b7MSZ7og5dRQZI6QghzYQEXEBYhKqvOQOfsVys2mlZ1u7
dN3VAeazoTo1eA==
-----END CERTIFICATE-----
