Certificate:
    Data:
        Version: 3 (0x2)
        Serial Number: 44 (0x2c)
    Signature Algorithm: sha256WithRSAEncryption
        Issuer: CN=ChangeMe
        Validity
            Not Before: Aug  2 16:07:04 2016 GMT
            Not After : Jul 31 16:07:04 2026 GMT
        Subject: CN=de2-4918a59b
        Subject Public Key Info:
            Public Key Algorithm: rsaEncryption
                Public-Key: (2048 bit)
                Modulus:
                    00:a6:68:0b:cc:a2:d8:97:85:d8:a6:9e:90:e8:a5:
                    64:2f:3f:73:8c:69:e1:ce:e1:73:de:ba:5a:d5:38:
                    57:fa:b8:2d:b0:df:33:74:74:21:c2:0d:1d:48:7e:
                    3c:52:db:6e:98:e5:15:e6:88:86:dc:8a:9e:10:85:
                    bb:99:9e:85:9f:e3:e3:5b:85:18:32:a4:58:65:6a:
                    9a:7a:91:0a:8f:47:45:03:11:a5:46:f8:16:e7:39:
                    4b:ce:a5:1d:5a:34:85:73:13:8c:21:05:c1:68:93:
                    00:c6:45:40:73:f9:8f:a3:17:04:9c:d4:45:57:2d:
                    ae:4d:80:64:a9:73:14:27:3a:bb:30:43:27:e0:20:
                    2a:ed:b9:21:75:24:50:2b:f4:30:c9:8f:95:6b:ee:
                    65:ec:e8:f0:cf:6b:8b:e4:d8:ff:c6:0e:96:1a:ca:
                    79:10:27:8f:09:a3:70:19:bd:c8:d8:30:98:5e:d5:
                    3d:84:68:01:9e:51:fd:2d:2b:e4:bc:11:a1:ff:f8:
                    b8:01:d9:ce:f4:7f:ce:6e:5a:ef:d5:1a:8a:a2:76:
                    e2:04:61:bc:60:23:bd:d8:c5:be:81:02:8a:57:11:
                    40:a0:5d:57:45:18:c5:9f:61:51:83:10:9d:90:b1:
                    54:59:92:2d:12:09:4f:3e:93:af:48:f8:4e:3e:07:
                    98:37
                Exponent: 65537 (0x10001)
        X509v3 extensions:
            X509v3 Basic Constraints: 
                CA:FALSE
            X509v3 Subject Key Identifier: 
                D8:C5:7E:DD:6F:49:A9:04:32:1B:DD:9F:A8:32:64:BB:E7:29:E4:7D
            X509v3 Authority Key Identifier: 
                keyid:30:30:47:5F:7C:6D:F2:BB:B6:C0:FC:32:24:20:33:94:37:35:70:A7
                DirName:/CN=ChangeMe
                serial:F2:90:F4:B3:35:FB:84:92

            X509v3 Extended Key Usage: 
                TLS Web Client Authentication
            X509v3 Key Usage: 
                Digital Signature
    Signature Algorithm: sha256WithRSAEncryption
         16:5b:86:3c:5a:ed:9f:5a:70:8e:3b:79:c3:6f:00:a5:99:8a:
         68:8e:d6:b2:2d:85:74:75:e1:48:38:be:c9:a0:47:b6:3b:a7:
         8e:c2:9a:27:73:b6:44:cb:4e:35:49:07:d4:9b:14:7f:4f:2a:
         0b:39:4d:e6:14:ea:f1:4a:ba:6d:10:82:d6:b5:a8:97:93:32:
         ca:a6:03:78:eb:b4:13:de:aa:c1:4c:48:d0:24:41:3f:d0:e8:
         e4:0c:15:b0:2e:76:af:fa:ed:bd:b3:58:c7:f8:a2:2f:e1:6a:
         ed:47:5e:ff:88:f5:fa:7c:9b:e2:80:35:c6:92:06:d3:8f:34:
         7c:e8:4e:df:d0:79:56:16:22:08:44:69:54:9d:a5:a5:4d:b7:
         77:db:59:2f:ae:c8:30:06:35:58:86:c5:98:06:f6:79:15:7e:
         33:20:96:2b:85:19:86:e8:4a:e0:c0:e5:ea:a6:a1:ef:56:e9:
         fb:f8:02:80:6f:c7:c6:85:0b:9f:22:d4:cd:30:5c:5e:18:82:
         9f:dc:f4:de:03:80:88:68:6d:9f:e9:1a:3d:5a:12:db:9f:97:
         1c:f8:fb:ce:b7:04:5b:24:d6:f3:4c:76:39:43:36:e3:d1:16:
         b2:b4:2e:39:25:73:0d:0b:d2:02:66:ab:5d:7a:dd:76:36:88:
         31:10:98:22
-----BEGIN CERTIFICATE-----
MIIDOjCCAiKgAwIBAgIBLDANBgkqhkiG9w0BAQsFADATMREwDwYDVQQDDAhDaGFu
Z2VNZTAeFw0xNjA4MDIxNjA3MDRaFw0yNjA3MzExNjA3MDRaMBcxFTATBgNVBAMM
DGRlMi00OTE4YTU5YjCCASIwDQYJKoZIhvcNAQEBBQADggEPADCCAQoCggEBAKZo
C8yi2JeF2KaekOilZC8/c4xp4c7hc966WtU4V/q4LbDfM3R0IcINHUh+PFLbbpjl
FeaIhtyKnhCFu5mehZ/j41uFGDKkWGVqmnqRCo9HRQMRpUb4Fuc5S86lHVo0hXMT
jCEFwWiTAMZFQHP5j6MXBJzURVctrk2AZKlzFCc6uzBDJ+AgKu25IXUkUCv0MMmP
lWvuZezo8M9ri+TY/8YOlhrKeRAnjwmjcBm9yNgwmF7VPYRoAZ5R/S0r5LwRof/4
uAHZzvR/zm5a79UaiqJ24gRhvGAjvdjFvoECilcRQKBdV0UYxZ9hUYMQnZCxVFmS
LRIJTz6Tr0j4Tj4HmDcCAwEAAaOBlDCBkTAJBgNVHRMEAjAAMB0GA1UdDgQWBBTY
xX7db0mpBDIb3Z+oMmS75ynkfTBDBgNVHSMEPDA6gBQwMEdffG3yu7bA/DIkIDOU
NzVwp6EXpBUwEzERMA8GA1UEAwwIQ2hhbmdlTWWCCQDykPSzNfuEkjATBgNVHSUE
DDAKBggrBgEFBQcDAjALBgNVHQ8EBAMCB4AwDQYJKoZIhvcNAQELBQADggEBABZb
hjxa7Z9acI47ecNvAKWZimiO1rIthXR14Ug4vsmgR7Y7p47CmidztkTLTjVJB9Sb
FH9PKgs5TeYU6vFKum0Qgta1qJeTMsqmA3jrtBPeqsFMSNAkQT/Q6OQMFbAudq/6
7b2zWMf4oi/hau1HXv+I9fp8m+KANcaSBtOPNHzoTt/QeVYWIghEaVSdpaVNt3fb
WS+uyDAGNViGxZgG9nkVfjMgliuFGYboSuDA5eqmoe9W6fv4AoBvx8aFC58i1M0w
XF4Ygp/c9N4DgIhobZ/pGj1aEtuflxz4+863BFsk1vNMdjlDNuPRFrK0Ljklcw0L
0gJmq1163XY2iDEQmCI=
-----END CERTIFICATE-----
