Certificate:
    Data:
        Version: 3 (0x2)
        Serial Number: 35 (0x23)
    Signature Algorithm: sha256WithRSAEncryption
        Issuer: CN=ChangeMe
        Validity
            Not Before: May  9 18:32:42 2016 GMT
            Not After : May  7 18:32:42 2026 GMT
        Subject: CN=de2-839530c2
        Subject Public Key Info:
            Public Key Algorithm: rsaEncryption
                Public-Key: (2048 bit)
                Modulus:
                    00:d7:d8:52:d2:cf:6e:1c:2f:e9:da:85:e5:93:19:
                    af:72:1b:52:f9:8f:8d:ad:14:ae:88:4e:fb:b2:23:
                    ab:a3:e0:70:68:d0:be:80:ce:1d:4d:5a:a8:73:bf:
                    0f:84:32:9b:b2:ea:51:59:62:ff:6d:16:44:0c:de:
                    ed:47:d4:92:5b:0c:23:1d:11:fe:23:e7:77:64:98:
                    2f:e3:3d:f3:e2:eb:1b:d0:d4:ec:2c:39:30:5e:cf:
                    39:d2:17:27:a3:ca:e6:44:8a:8f:6f:fe:6e:4b:18:
                    03:2c:58:d0:a3:30:5c:ea:ba:5e:bc:3e:7c:7f:9b:
                    69:c1:50:00:b7:c8:e3:5a:3e:c0:e8:e8:28:fc:f3:
                    af:6f:1e:ac:35:8b:a8:aa:2a:c1:83:18:55:b9:f3:
                    fd:42:46:fd:1a:a7:5f:44:0d:b2:94:08:d6:fd:bb:
                    ca:4f:c6:53:11:33:cf:23:55:54:66:bb:c9:52:18:
                    3d:ee:08:32:3d:86:4c:b6:72:ad:be:06:76:a2:86:
                    a6:1e:a2:9f:b2:98:2a:1f:12:69:37:4b:79:08:1b:
                    b7:e8:9a:bb:57:04:c9:bd:63:2d:4c:fc:15:12:ad:
                    dc:72:88:b1:84:1f:cb:2c:52:73:f6:d9:8c:8e:5b:
                    c8:88:c9:c9:34:df:03:52:8b:31:0c:f6:59:67:44:
                    e5:e3
                Exponent: 65537 (0x10001)
        X509v3 extensions:
            X509v3 Basic Constraints: 
                CA:FALSE
            X509v3 Subject Key Identifier: 
                AA:4D:5F:DD:7C:40:15:A8:20:8E:96:CC:03:DA:D5:1B:91:8D:D3:17
            X509v3 Authority Key Identifier: 
                keyid:30:30:47:5F:7C:6D:F2:BB:B6:C0:FC:32:24:20:33:94:37:35:70:A7
                DirName:/CN=ChangeMe
                serial:F2:90:F4:B3:35:FB:84:92

            X509v3 Extended Key Usage: 
                TLS Web Client Authentication
            X509v3 Key Usage: 
                Digital Signature
    Signature Algorithm: sha256WithRSAEncryption
         c4:94:c3:d4:53:76:e8:4e:2d:a1:a6:84:9f:69:9d:1a:59:97:
         23:fa:34:9c:9e:2e:79:6d:be:b0:f5:f2:65:42:97:98:fa:2c:
         23:87:82:29:f8:0f:fa:e0:81:ca:8f:72:6c:44:9d:22:05:84:
         bf:eb:22:ff:0f:27:7b:4d:4c:57:20:bb:a3:88:22:ef:8a:30:
         02:81:24:0b:5d:d1:fe:c3:f2:58:60:b3:6c:1e:2e:44:0d:5b:
         0c:c0:77:74:f7:64:14:ec:79:90:e4:05:97:46:6a:60:ac:fc:
         6c:ea:43:e3:ca:73:b6:4e:92:c7:13:0b:54:7d:9f:b4:e0:a9:
         5e:58:3c:64:02:81:08:a5:d0:02:8f:42:5a:bb:dd:12:ba:ee:
         1f:38:3c:86:d3:ae:57:1d:b0:6c:e2:86:39:8f:36:2e:80:5a:
         c9:e8:3a:89:36:10:7a:2c:19:87:13:9b:6e:ff:9d:46:38:37:
         52:55:70:8d:fe:12:5a:0e:31:75:07:2c:e2:ef:4e:8c:ca:85:
         25:76:f7:11:9c:d1:6f:3e:77:9e:e4:43:e3:06:79:f0:e6:18:
         22:39:f6:6f:f3:e5:d5:ef:5f:5c:f6:63:b9:11:b2:a6:71:7d:
         b8:79:6e:a1:ea:05:1e:21:db:6a:58:63:51:90:bc:37:28:30:
         dd:32:42:86
-----BEGIN CERTIFICATE-----
MIIDOjCCAiKgAwIBAgIBIzANBgkqhkiG9w0BAQsFADATMREwDwYDVQQDDAhDaGFu
Z2VNZTAeFw0xNjA1MDkxODMyNDJaFw0yNjA1MDcxODMyNDJaMBcxFTATBgNVBAMM
DGRlMi04Mzk1MzBjMjCCASIwDQYJKoZIhvcNAQEBBQADggEPADCCAQoCggEBANfY
UtLPbhwv6dqF5ZMZr3IbUvmPja0UrohO+7Ijq6PgcGjQvoDOHU1aqHO/D4Qym7Lq
UVli/20WRAze7UfUklsMIx0R/iPnd2SYL+M98+LrG9DU7Cw5MF7POdIXJ6PK5kSK
j2/+bksYAyxY0KMwXOq6Xrw+fH+bacFQALfI41o+wOjoKPzzr28erDWLqKoqwYMY
Vbnz/UJG/RqnX0QNspQI1v27yk/GUxEzzyNVVGa7yVIYPe4IMj2GTLZyrb4GdqKG
ph6in7KYKh8SaTdLeQgbt+iau1cEyb1jLUz8FRKt3HKIsYQfyyxSc/bZjI5byIjJ
yTTfA1KLMQz2WWdE5eMCAwEAAaOBlDCBkTAJBgNVHRMEAjAAMB0GA1UdDgQWBBSq
TV/dfEAVqCCOlswD2tUbkY3TFzBDBgNVHSMEPDA6gBQwMEdffG3yu7bA/DIkIDOU
NzVwp6EXpBUwEzERMA8GA1UEAwwIQ2hhbmdlTWWCCQDykPSzNfuEkjATBgNVHSUE
DDAKBggrBgEFBQcDAjALBgNVHQ8EBAMCB4AwDQYJKoZIhvcNAQELBQADggEBAMSU
w9RTduhOLaGmhJ9pnRpZlyP6NJyeLnltvrD18mVCl5j6LCOHgin4D/rggcqPcmxE
nSIFhL/rIv8PJ3tNTFcgu6OIIu+KMAKBJAtd0f7D8lhgs2weLkQNWwzAd3T3ZBTs
eZDkBZdGamCs/GzqQ+PKc7ZOkscTC1R9n7TgqV5YPGQCgQil0AKPQlq73RK67h84
PIbTrlcdsGzihjmPNi6AWsnoOok2EHosGYcTm27/nUY4N1JVcI3+EloOMXUHLOLv
TozKhSV29xGc0W8+d57kQ+MGefDmGCI59m/z5dXvX1z2Y7kRsqZxfbh5bqHqBR4h
22pYY1GQvDcoMN0yQoY=
-----END CERTIFICATE-----
