Certificate:
    Data:
        Version: 3 (0x2)
        Serial Number: 45 (0x2d)
    Signature Algorithm: sha256WithRSAEncryption
        Issuer: CN=ChangeMe
        Validity
            Not Before: Aug 21 20:05:49 2016 GMT
            Not After : Aug 19 20:05:49 2026 GMT
        Subject: CN=test-rsa
        Subject Public Key Info:
            Public Key Algorithm: rsaEncryption
                Public-Key: (2048 bit)
                Modulus:
                    00:f6:c9:43:a0:bc:96:d4:52:fa:30:c1:01:5c:5e:
                    1b:00:dd:08:b4:17:d2:34:7d:68:eb:0a:98:20:73:
                    ef:1b:25:4c:40:80:3a:bb:a5:44:cd:1f:78:d0:ee:
                    e0:85:a0:bd:ca:b4:28:90:fe:7e:e9:f5:34:11:6d:
                    d1:76:d4:bc:02:34:57:3c:be:47:a7:66:8f:8b:6c:
                    ac:2c:74:1e:5a:e2:4c:a5:d4:e3:e3:35:aa:0f:51:
                    a8:37:d9:d0:53:3f:d0:c4:4e:f6:5f:1c:ed:a1:03:
                    d9:6d:31:22:72:0b:a7:e2:c3:53:37:93:58:fb:44:
                    b2:df:f6:d7:27:45:d3:79:eb:a4:25:55:39:c8:d9:
                    11:55:74:10:d5:56:65:5a:8a:d1:2a:95:94:d7:a3:
                    fc:3f:c2:51:91:c6:0e:3f:f8:a9:ef:c0:db:e4:19:
                    d5:ea:94:12:1f:22:33:dd:b3:85:92:40:ed:77:30:
                    3f:bf:6c:2a:4d:81:66:26:65:00:35:71:b2:cd:fc:
                    b3:eb:fd:06:5b:3d:81:f0:a3:88:05:b1:73:6f:78:
                    04:09:98:cb:32:ac:3a:4e:03:79:64:6a:19:b3:62:
                    f2:af:78:09:65:fc:b0:1d:2a:0a:7f:99:3d:5b:44:
                    54:bc:3b:91:ac:46:9a:e5:09:62:d4:01:35:80:3d:
                    a8:19
                Exponent: 65537 (0x10001)
        X509v3 extensions:
            X509v3 Basic Constraints: 
                CA:FALSE
            X509v3 Subject Key Identifier: 
                3C:81:D9:C0:15:D7:6D:34:4E:E1:C7:08:5C:96:F7:34:A3:18:16:76
            X509v3 Authority Key Identifier: 
                keyid:30:30:47:5F:7C:6D:F2:BB:B6:C0:FC:32:24:20:33:94:37:35:70:A7
                DirName:/CN=ChangeMe
                serial:F2:90:F4:B3:35:FB:84:92

            X509v3 Extended Key Usage: 
                TLS Web Client Authentication
            X509v3 Key Usage: 
                Digital Signature
    Signature Algorithm: sha256WithRSAEncryption
         0d:14:68:41:b2:19:f0:15:f8:9a:5d:52:a3:7a:bf:5d:df:61:
         9d:08:81:04:ee:57:c4:1e:ad:af:cb:2f:cb:d2:c1:d7:72:40:
         d9:13:1f:ae:43:42:2d:b0:38:ee:a3:92:b3:60:01:71:f7:8c:
         cd:fe:27:3d:7c:7d:15:0e:f1:18:b7:8a:21:16:56:7f:e5:f9:
         03:50:38:fd:a9:af:8b:92:8e:a4:a6:dc:76:14:e1:ae:06:72:
         cc:2c:25:db:86:56:d6:bf:80:88:51:99:b1:fe:9c:b1:e4:0b:
         80:b6:11:9f:85:b2:41:a5:3f:fa:b2:77:22:fe:df:bc:9a:1b:
         18:53:28:e7:4d:6f:cb:3a:0d:71:94:e4:31:53:5b:96:5a:ac:
         56:18:d7:45:d5:a2:01:b4:b3:dd:a7:f4:5c:07:5c:14:ee:a2:
         a0:d9:df:ff:1c:c6:38:fe:94:1f:3f:8b:c9:b7:0f:d9:9d:22:
         a8:0f:a2:6d:43:fa:9e:7a:e6:fa:1c:c9:f4:fe:f8:25:b5:26:
         e0:27:a6:f0:58:cc:6b:8c:7a:3f:05:af:02:da:1b:62:58:e7:
         07:21:8a:c9:b7:2c:f1:73:b0:e2:f9:7a:db:e0:f5:01:cb:22:
         8f:20:55:38:11:25:96:cb:c8:03:3b:0d:7c:91:ac:7e:15:c3:
         75:c6:a4:02
-----BEGIN CERTIFICATE-----
MIIDNjCCAh6gAwIBAgIBLTANBgkqhkiG9w0BAQsFADATMREwDwYDVQQDDAhDaGFu
Z2VNZTAeFw0xNjA4MjEyMDA1NDlaFw0yNjA4MTkyMDA1NDlaMBMxETAPBgNVBAMM
CHRlc3QtcnNhMIIBIjANBgkqhkiG9w0BAQEFAAOCAQ8AMIIBCgKCAQEA9slDoLyW
1FL6MMEBXF4bAN0ItBfSNH1o6wqYIHPvGyVMQIA6u6VEzR940O7ghaC9yrQokP5+
6fU0EW3RdtS8AjRXPL5Hp2aPi2ysLHQeWuJMpdTj4zWqD1GoN9nQUz/QxE72Xxzt
oQPZbTEicgun4sNTN5NY+0Sy3/bXJ0XTeeukJVU5yNkRVXQQ1VZlWorRKpWU16P8
P8JRkcYOP/ip78Db5BnV6pQSHyIz3bOFkkDtdzA/v2wqTYFmJmUANXGyzfyz6/0G
Wz2B8KOIBbFzb3gECZjLMqw6TgN5ZGoZs2Lyr3gJZfywHSoKf5k9W0RUvDuRrEaa
5Qli1AE1gD2oGQIDAQABo4GUMIGRMAkGA1UdEwQCMAAwHQYDVR0OBBYEFDyB2cAV
1200TuHHCFyW9zSjGBZ2MEMGA1UdIwQ8MDqAFDAwR198bfK7tsD8MiQgM5Q3NXCn
oRekFTATMREwDwYDVQQDDAhDaGFuZ2VNZYIJAPKQ9LM1+4SSMBMGA1UdJQQMMAoG
CCsGAQUFBwMCMAsGA1UdDwQEAwIHgDANBgkqhkiG9w0BAQsFAAOCAQEADRRoQbIZ
8BX4ml1So3q/Xd9hnQiBBO5XxB6tr8svy9LB13JA2RMfrkNCLbA47qOSs2ABcfeM
zf4nPXx9FQ7xGLeKIRZWf+X5A1A4/amvi5KOpKbcdhThrgZyzCwl24ZW1r+AiFGZ
sf6cseQLgLYRn4WyQaU/+rJ3Iv7fvJobGFMo501vyzoNcZTkMVNbllqsVhjXRdWi
AbSz3af0XAdcFO6ioNnf/xzGOP6UHz+LybcP2Z0iqA+ibUP6nnrm+hzJ9P74JbUm
4Cem8FjMa4x6PwWvAtobYljnByGKybcs8XOw4vl62+D1AcsijyBVOBEllsvIAzsN
fJGsfhXDdcakAg==
-----END CERTIFICATE-----
